ccopy_reg
_reconstructor
p1
(ctensorflow.contrib.learn.python.learn.preprocessing.text
VocabularyProcessor
p2
c__builtin__
object
p3
NtRp4
(dp5
S'vocabulary_'
p6
g1
(ctensorflow.contrib.learn.python.learn.preprocessing.categorical_vocabulary
CategoricalVocabulary
p7
g3
NtRp8
(dp9
S'_freeze'
p10
I01
sS'_unknown_token'
p11
S'<UNK>'
p12
sS'_support_reverse'
p13
I01
sS'_freq'
p14
ccollections
defaultdict
p15
(c__builtin__
int
p16
tRp17
S'Pussycat'
p18
I1
sS'limited'
p19
I1
sS'45-run'
p20
I1
sS'doubts'
p21
I1
sS'Richland'
p22
I1
sS'colleges'
p23
I2
sS'yellow'
p24
I1
sS'Theresa'
p25
I1
sS'facilities'
p26
I1
sS'protest'
p27
I2
sS'Clippers'
p28
I1
sS'controversial'
p29
I1
sS'aides'
p30
I1
sS'commandos'
p31
I1
sS'Communist'
p32
I1
sS'oldest'
p33
I2
sS'hate'
p34
I2
sS'towns'
p35
I1
sS'relationships'
p36
I1
sS'whose'
p37
I2
sS'Liverpool'
p38
I1
sS'Livingstone'
p39
I1
sS'electricity'
p40
I1
sS'tweet'
p41
I1
sS'poorest'
p42
I1
sS'Marygn'
p43
I1
sS'painters'
p44
I1
sS'opener'
p45
I1
sS'Western'
p46
I2
sS'under'
p47
I4
sS'Plague'
p48
I1
sS'sorry'
p49
I1
sS'pride'
p50
I3
sS'sway'
p51
I1
sS'worth'
p52
I1
sS'carried'
p53
I1
sS'Shoot'
p54
I1
sS'League'
p55
I3
sS'compelling'
p56
I1
sS'risk'
p57
I4
sS'tampons'
p58
I1
sS'Famed'
p59
I1
sS'Blade'
p60
I1
sS'Boghossian'
p61
I1
sS'every'
p62
I7
sS'viral'
p63
I1
sS'bringing'
p64
I4
sS'school'
p65
I2
sS'basics'
p66
I1
sS'magnate'
p67
I1
sS'molesting'
p68
I1
sS'Campaign'
p69
I2
sS'skills'
p70
I2
sS'fondly'
p71
I1
sS'companies'
p72
I3
sS'solution'
p73
I2
sS'casinos'
p74
I1
sS'Sands'
p75
I1
sS'affect'
p76
I1
sS'freestyling'
p77
I1
sS'Go'
p78
I1
sS'employees'
p79
I2
sS'Paul'
p80
I2
sS'1940s'
p81
I1
sS'budges'
p82
I1
sS'Our'
p83
I1
sS'force'
p84
I2
sS'leaders'
p85
I8
sS'Festival'
p86
I1
sS'warns'
p87
I1
sS'Some'
p88
I2
sS'beginner'
p89
I1
sS'elections'
p90
I1
sS'270'
p91
I1
sS'talks'
p92
I2
sS'second'
p93
I9
sS'estimated'
p94
I1
sS"Shkreli's"
p95
I1
sS'machines'
p96
I1
sS'even'
p97
I3
sS'web-based'
p98
I1
sS'Arizona'
p99
I1
sS'hide'
p100
I1
sS'organisms'
p101
I1
sS'prisons'
p102
I1
sS'Theourt'
p103
I1
sS'Merkel'
p104
I2
sS'Samsung'
p105
I1
sS'Game'
p106
I2
sS'Ones'
p107
I1
sS'Hamilton'
p108
I3
sS'above'
p109
I1
sS'conduct'
p110
I2
sS'Put'
p111
I1
sS'new'
p112
I21
sS'net'
p113
I1
sS'increasing'
p114
I1
sS'ever'
p115
I4
sS'seeks'
p116
I3
sS'told'
p117
I8
sS'specialist'
p118
I1
sS'Varnish'
p119
I1
sS'hero'
p120
I2
sS'men'
p121
I8
sS'Elli'
p122
I1
sS'here'
p123
I2
sS'Pirates'
p124
I1
sS'met'
p125
I5
sS'Taillon'
p126
I1
sS'voter'
p127
I1
sS"'joke'"
p128
I2
sS'active'
p129
I1
sS'Ernest'
p130
I1
sS'100'
p131
I4
sS"aren't"
p132
I1
sS'105'
p133
I2
sS'dry'
p134
I1
sS'ODI'
p135
I1
sS'daughter'
p136
I1
sS'items'
p137
I1
sS'Tuesday'
p138
I12
sS'changed'
p139
I1
sS'jail'
p140
I1
sS'reports'
p141
I2
sS'controversy'
p142
I1
sS'pinning'
p143
I1
sS'Chat'
p144
I1
sS'two-year-old'
p145
I1
sS'analysts'
p146
I1
sS'military'
p147
I3
sS'Alternative'
p148
I1
sS'postponed'
p149
I1
sS'changes'
p150
I1
sS'tackling'
p151
I1
sS'criticism'
p152
I1
sS'cushy'
p153
I1
sS'digitally'
p154
I1
sS'campaign'
p155
I15
sS'City'
p156
I3
sS'Three'
p157
I1
sS'replace'
p158
I1
sS'Behind'
p159
I1
sS'stern'
p160
I1
sS'offi'
p161
I1
sS'Wales'
p162
I1
sS'total'
p163
I3
sS'unit'
p164
I4
sS'opponents'
p165
I1
sS'tween'
p166
I1
sS'spoke'
p167
I1
sS'would'
p168
I13
sS'army'
p169
I1
sS'hospital'
p170
I3
sS'June'
p171
I2
sS"world's"
p172
I2
sS'music'
p173
I2
sS'spike'
p174
I1
sS'survive'
p175
I1
sS'Johanna'
p176
I1
sS'assessment'
p177
I1
sS'until'
p178
I1
sS'supporters'
p179
I2
sS'brings'
p180
I1
sS'proton'
p181
I1
sS'thereng'
p182
I1
sS'award'
p183
I2
sS'hurt'
p184
I1
sS'phone'
p185
I1
sS'defeated'
p186
I1
sS'week-long'
p187
I1
sS"game's"
p188
I2
sS'casualties'
p189
I2
sS'must'
p190
I2
sS'me'
p191
I1
sS'Delay'
p192
I1
sS'join'
p193
I1
sS'room'
p194
I3
sS'rights'
p195
I1
sS'work'
p196
I1
sS'Lowden'
p197
I1
sS'Pelton'
p198
I4
sS'movies'
p199
I1
sS'obstacle'
p200
I1
sS'era'
p201
I6
sS'leaped'
p202
I1
sS'experts'
p203
I2
sS"sequel's"
p204
I1
sS'my'
p205
I4
sS'initial'
p206
I1
sS'Le'
p207
I2
sS'estate'
p208
I1
sS'La'
p209
I3
sS'Altitude'
p210
I1
sS'ICBM'
p211
I1
sS'heartless'
p212
I1
sS'dosing'
p213
I1
sS'Brian'
p214
I2
sS'woman'
p215
I3
sS'reviewing'
p216
I1
sS'want'
p217
I3
sS'bellekalbum'
p218
I1
sS'keep'
p219
I1
sS'attract'
p220
I1
sS'rescue'
p221
I1
sS'sought'
p222
I1
sS'end'
p223
I4
sS'recovery'
p224
I1
sS'ry'
p225
I1
sS'provide'
p226
I2
sS'thousands'
p227
I1
sS'feature'
p228
I1
sS'Yea2s'
p229
I1
sS'machine'
p230
I1
sS'how'
p231
I4
sS'hot'
p232
I1
sS'Poverty'
p233
I1
sS'confin'
p234
I1
sS'accusations'
p235
I1
sS'rookie'
p236
I1
sS'answer'
p237
I2
sS'widespread'
p238
I1
sS'Stock'
p239
I1
sS'III'
p240
I1
sS'charging'
p241
I1
sS'Zealand'
p242
I1
sS'rise'
p243
I2
sS'Lucas'
p244
I1
sS'anti-Israel'
p245
I1
sS'typed'
p246
I1
sS'earlier'
p247
I3
sS'processing'
p248
I1
sS'lab'
p249
I1
sS'Will'
p250
I1
sS'Players'
p251
I1
sS'wrong'
p252
I1
sS'coup'
p253
I1
sS'Paris'
p254
I2
sS'Wild'
p255
I4
sS'president'
p256
I13
sS'law'
p257
I2
sS'meaningful'
p258
I2
sS'stronghold'
p259
I1
sS'All'
p260
I2
sS'Finaleding'
p261
I1
sS'elusive'
p262
I2
sS'Communications'
p263
I1
sS'third'
p264
I3
sS'Ali'
p265
I1
sS'communities'
p266
I1
sS'wins'
p267
I4
sS'acknowledged'
p268
I2
sS'Japanese'
p269
I1
sS'Eric'
p270
I1
sS'hamstrings'
p271
I3
sS'Another'
p272
I1
sS'things'
p273
I4
sS'first'
p274
I23
sS'u0026'
p275
I1
sS'order'
p276
I2
sS'wind'
p277
I1
sS'wine'
p278
I1
sS'Blue'
p279
I1
sS'senators'
p280
I2
sS'office'
p281
I3
sS'over'
p282
I24
sS'Surveillance'
p283
I1
sS'adoptees'
p284
I1
sS'Charlottesville'
p285
I1
sS'Toll'
p286
I1
sS'Oscar'
p287
I1
sS'before'
p288
I4
sS'outsized'
p289
I1
sS'Kremlin-linked'
p290
I3
sS'His'
p291
I3
sS'personal'
p292
I1
sS'Famer'
p293
I2
sS'recreational'
p294
I1
sS'expectations'
p295
I1
sS'Here'
p296
I1
sS'writing'
p297
I1
sS'better'
p298
I3
sS'production'
p299
I1
sS'Evan'
p300
I1
sS'Birth'
p301
I1
sS'Emerald'
p302
I1
sS'Judge'
p303
I1
sS'stalemate'
p304
I1
sS'weeks'
p305
I1
sS'overcome'
p306
I1
sS'Career'
p307
I1
sS'donors'
p308
I1
sS'them'
p309
I6
sS'ISP'
p310
I1
sS'tourist'
p311
I3
sS'Administration'
p312
I1
sS'webshop'
p313
I1
sS'Gotta'
p314
I1
sS'Thomas'
p315
I1
sS'Analysis'
p316
I1
sS'break'
p317
I1
sS'Omar'
p318
I1
sS'they'
p319
I17
sS'schools'
p320
I1
sS'Cabinet'
p321
I1
sS'prize'
p322
I1
sS"administration's"
p323
I1
sS'several'
p324
I7
sS'Liberal'
p325
I1
sS'rocky'
p326
I1
sS'Spousespent'
p327
I1
sS'fonts'
p328
I3
sS'India'
p329
I1
sS'victory'
p330
I8
sS'Frankfurter'
p331
I3
sS'Rovers'
p332
I1
sS'went'
p333
I1
sS'side'
p334
I4
sS'bone'
p335
I1
sS'bond'
p336
I1
sS'burial'
p337
I1
sS'Hezbollah'
p338
I1
sS'financial'
p339
I3
sS'Destiny'
p340
I1
sS'independent'
p341
I1
sS'series'
p342
I5
sS'long-running'
p343
I1
sS'principles'
p344
I1
sS'aide'
p345
I2
sS'vote'
p346
I2
sS'trading'
p347
I1
sS'Syriathat'
p348
I1
sS'reached'
p349
I1
sS'navy'
p350
I1
sS'Hollywood'
p351
I1
sS'hurts'
p352
I1
sS'Styles'
p353
I1
sS'driving'
p354
I3
sS'Chancellor'
p355
I2
sS'tried'
p356
I1
sS'crucial'
p357
I1
sS'two-hour'
p358
I2
sS'Expansion'
p359
I1
sS'counselors'
p360
I1
sS'William'
p361
I2
sS'method'
p362
I1
sS'encourage'
p363
I1
sS'for-profit'
p364
I2
sS'surprise'
p365
I1
sS'gov'
p366
I1
sS'DLC'
p367
I2
sS'legislative'
p368
I2
sS'turning'
p369
I1
sS'assured'
p370
I1
sS"doesn't"
p371
I3
sS'University'
p372
I2
sS'threatened'
p373
I1
sS'voltages'
p374
I1
sS'free'
p375
I3
sS'Qualcomm'
p376
I1
sS'run-up'
p377
I1
sS'disputes'
p378
I1
sS'W'
I1
sS'-era'
p379
I1
sS'wanted'
p380
I2
sS'Banend'
p381
I1
sS'aisle'
p382
I1
sS'Clinton'
p383
I4
sS'recovering'
p384
I1
sS'created'
p385
I1
sS'Clinto'
p386
I1
sS'National'
p387
I3
sS'Centre'
p388
I1
sS'days'
p389
I5
sS'filter'
p390
I1
sS'000'
p391
I11
sS'oppose'
p392
I1
sS'Human'
p393
I1
sS'soda'
p394
I1
sS'arrived'
p395
I3
sS'double-do7n'
p396
I1
sS'sident'
p397
I2
sS'purpose'
p398
I1
sS'Nicolas'
p399
I1
sS'already'
p400
I1
sS'Hwasong-14'
p401
I1
sS'economists'
p402
I1
sS'Recep'
p403
I1
sS'27-point'
p404
I1
sS'reciprocally'
p405
I1
sS'hearing'
p406
I1
sS'another'
p407
I7
sS'tangle'
p408
I2
sS'ficials'
p409
I1
sS'inmate'
p410
I2
sS'basketball'
p411
I1
sS"Brazil's"
p412
I1
sS'Nielsen'
p413
I1
sS'service'
p414
I7
sS'courted'
p415
I1
sS'Academy'
p416
I2
sS'top'
p417
I6
sS'protracted'
p418
I1
sS'equilibria'
p419
I1
sS"Pyongyang's"
p420
I1
sS'ballistic'
p421
I5
sS'too'
p422
I1
sS'Nintendo'
p423
I2
sS'Press'
p424
I1
sS'dwell'
p425
I2
sS'LNG'
p426
I1
sS'SEATTLE'
p427
I1
sS'bitter'
p428
I1
sS'dogs'
p429
I1
sS'damaging'
p430
I1
sS'listen'
p431
I3
sS'urban'
p432
I1
sS'Atmospheric'
p433
I1
sS'Notosuchiateeth'
p434
I1
sS'Gulbis'
p435
I1
sS'tool'
p436
I1
sS'took'
p437
I3
sS'task'
p438
I1
sS'longer-term'
p439
I1
sS'gambler'
p440
I1
sS'target'
p441
I1
sS'showed'
p442
I3
sS'surrounding'
p443
I1
sS'fossilised'
p444
I1
sS'Leicester'
p445
I1
sS'likely'
p446
I3
sS'nations'
p447
I1
sS'regulator'
p448
I1
sS'matter'
p449
I4
sS'appetite'
p450
I1
sS'guilt'
p451
I3
sS'Sniffer'
p452
I1
sS'Sen'
p453
I1
sS"company's"
p454
I1
sS'feeling'
p455
I1
sS'Galaxy'
p456
I1
sS'Cody'
p457
I1
sS'THAAD'
p458
I2
sS'sees'
p459
I1
sS'Chicago'
p460
I2
sS'ran'
p461
I3
sS'Mind'
p462
I1
sS'modern'
p463
I5
sS'mind'
p464
I1
sS'spectrum'
p465
I1
sS'Angela'
p466
I2
sS'Flood'
p467
I1
sS'crew'
p468
I2
sS'seek'
p469
I1
sS'tells'
p470
I2
sS'Williams'
p471
I3
sS'dozen'
p472
I3
sS'forced'
p473
I1
sS'burgers'
p474
I1
sS'responsible'
p475
I3
sS'-'
I13
sS'isolated'
p476
I1
sS'Estrella'
p477
I1
sS'recommended'
p478
I1
sS'Historic'
p479
I1
sS'Minister'
p480
I4
sS'forces'
p481
I6
sS'season'
p482
I2
sS'grips'
p483
I1
sS'Russi'
p484
I1
sS'Bank'
p485
I1
sS'crocs'
p486
I1
sS'Jones'
p487
I2
sS'blue'
p488
I1
sS'Qs'
p489
I1
sS'detained'
p490
I1
sS'proving'
p491
I1
sS'catastrophe'
p492
I1
sS"tech's"
p493
I1
sS'optimized'
p494
I1
sS'involving'
p495
I2
sS'letter'
p496
I1
sS'organization'
p497
I1
sS'Minecraft'
p498
I1
sS"Lindor's"
p499
I1
sS'grave'
p500
I2
sS'Bernie'
p501
I1
sS'singer'
p502
I1
sS'don'
p503
I2
sS'Lewis'
p504
I1
sS'camp'
p505
I1
sS'metal'
p506
I1
sS'Bungie'
p507
I1
sS'tech'
p508
I2
sS'everything'
p509
I1
sS'Its'
p510
I1
sS'came'
p511
I2
sS'saying'
p512
I2
sS'slums'
p513
I1
sS'ransomware'
p514
I1
sS'saga'
p515
I1
sS'meetings'
p516
I3
sS'Agency'
p517
I1
sS'Colbert'
p518
I1
sS'syntax'
p519
I1
sS'rediscovery'
p520
I1
sS'attempts'
p521
I1
sS"Uber's"
p522
I1
sS'near-capacity'
p523
I1
sS'sexism'
p524
I1
sS'Anne'
p525
I1
sS'Twister'
p526
I1
sS'five-week'
p527
I1
sS"Wimbledon's"
p528
I1
sS'European'
p529
I4
sS'Seventy'
p530
I1
sS'tidge'
p531
I1
sS'sewn'
p532
I1
sS'proposed'
p533
I1
sS'Stance'
p534
I1
sS'Janeiro'
p535
I1
sS'panned'
p536
I1
sS'Big'
p537
I2
sS'delays'
p538
I1
sS'Republicans'
p539
I9
sS'Amazon'
p540
I2
sS'bust'
p541
I1
sS'gutsy'
p542
I1
sS'Wight'
p543
I2
sS'Contradictory'
p544
I1
sS'announce'
p545
I1
sS'Appeals'
p546
I1
sS"'no"
p547
I1
sS'wearing'
p548
I1
sS'do'
p549
I4
sS'exports'
p550
I4
sS'sunglasses'
p551
I1
sS'professionals'
p552
I2
sS'theybrand'
p553
I1
sS'de'
p554
I1
sS'13'
p555
I2
sS'psychiatric'
p556
I1
sS'criticized'
p557
I2
sS'supplies'
p558
I1
sS'report'
p559
I1
sS'nasty'
p560
I2
sS'Husband'
p561
I1
sS'Colorado'
p562
I2
sS'child'
p563
I3
sS'countries'
p564
I1
sS'rowing'
p565
I1
sS'Creator'
p566
I1
sS'bandwidth'
p567
I1
sS'patch'
p568
I2
sS"them'"
p569
I1
sS'twice'
p570
I2
sS'bad'
p571
I1
sS'Beast'
p572
I1
sS'three-year'
p573
I3
sS'Bigger'
p574
I1
sS'release'
p575
I1
sS'shocks'
p576
I1
sS'secretary'
p577
I3
sS'searching'
p578
I2
sS'Jackson'
p579
I1
sS'victim'
p580
I1
sS'fair'
p581
I1
sS'job'
p582
I2
sS'Hospital'
p583
I1
sS'Ellison'
p584
I1
sS'resist'
p585
I3
sS'pads'
p586
I1
sS'kneecaps'
p587
I1
sS'fail'
p588
I1
sS'Android'
p589
I1
sS'John'
p590
I1
sS'redoubts'
p591
I1
sS'best'
p592
I5
sS'subject'
p593
I2
sS'said'
p594
I35
sS'capacity'
p595
I1
sS'runs'
p596
I2
sS'ambitions'
p597
I1
sS'lots'
p598
I1
sS'away'
p599
I3
sS'Bellinger'
p600
I1
sS'unable'
p601
I1
sS'cooperation'
p602
I1
sS'Technologies'
p603
I1
sS'approach'
p604
I2
sS'shields'
p605
I1
sS'discovery'
p606
I1
sS'occurredet'
p607
I1
sS'warrior'
p608
I1
sS'we'
p609
I6
sS'never'
p610
I1
sS'terms'
p611
I1
sS'paywall'
p612
I1
sS'-Russia'
p613
I1
sS'handful'
p614
I1
sS'Sam'
p615
I1
sS'boss'
p616
I1
sS'retirement'
p617
I1
sS'auteur'
p618
I1
sS'drew'
p619
I1
sS'news'
p620
I4
sS'hundreds'
p621
I1
sS'improve'
p622
I1
sS'suggested'
p623
I1
sS"Homecoming'"
p624
I1
sS'climate'
p625
I5
sS'accident'
p626
I3
sS'unt'
p627
I1
sS'reported'
p628
I4
sS'Dance'
p629
I1
sS'country'
p630
I4
sS'uncertainty'
p631
I2
sS'heating'
p632
I1
sS'against'
p633
I15
sS'players'
p634
I1
sS'games'
p635
I2
sS'planned'
p636
I2
sS'lottery-ticket'
p637
I1
sS"leaders'"
p638
I1
sS'Dawn'
p639
I2
sS'confronted'
p640
I1
sS'asked'
p641
I2
sS'Blocked'
p642
I1
sS"Germany's"
p643
I1
sS'prospect'
p644
I2
sS'standings'
p645
I1
sS'Zendaya'
p646
I1
sS'tond'
p647
I1
sS'Redfin'
p648
I1
sS'Russiangld'
p649
I1
sS'Gas'
p650
I1
sS'betting'
p651
I1
sS'excess'
p652
I1
sS'Petroleum'
p653
I1
sS'20s'
p654
I1
sS"State's"
p655
I2
sS'ndepending'
p656
I1
sS'Ohio'
p657
I2
sS'Jurvetson'
p658
I1
sS'Sorry'
p659
I1
sS'trust'
p660
I3
sS'257'
p661
I1
sS'speak'
p662
I1
sS'conference'
p663
I2
sS'question'
p664
I4
sS'bathroom'
p665
I1
sS'strong'
p666
I2
sS'targeting'
p667
I2
sS'asks'
p668
I2
sS"I've"
p669
I1
sS'patrolling'
p670
I1
sS'three'
p671
I4
sS'been'
p672
I16
sS'commission'
p673
I1
sS'Hillary'
p674
I4
sS'much'
p675
I4
sS'interest'
p676
I1
sS'expected'
p677
I4
sS'parents'
p678
I1
sS'entered'
p679
I2
sS'dozens'
p680
I1
sS'borrowers'
p681
I1
sS'life'
p682
I6
sS'so-called'
p683
I1
sS'innocent'
p684
I1
sS'Vice'
p685
I1
sS'turned'
p686
I1
sS'Poland'
p687
I1
sS'Elections'
p688
I2
sS'marijuana'
p689
I1
sS'atgs'
p690
I1
sS'lift'
p691
I3
sS'all-cash'
p692
I1
sS'deepen'
p693
I1
sS'Voice'
p694
I1
sS'Secretary'
p695
I4
sS'body--from'
p696
I2
sS'Trumpsho7ing'
p697
I1
sS'Co'
p698
I2
sS'reworking'
p699
I1
sS'put8'
p700
I1
sS'remaining'
p701
I2
sS'aim'
p702
I2
sS'ugly'
p703
I1
sS'near'
p704
I5
sS'Sonntagszeitung'
p705
I2
sS'Cleveland'
p706
I1
sS'property'
p707
I1
sS'study'
p708
I2
sS'launched'
p709
I3
sS'pessimistic'
p710
I1
sS'seven'
p711
I1
sS'Openmoko'
p712
I1
sS'is'
p713
I79
sS'Among'
p714
I1
sS'it'
p715
I39
sS'LOL'
p716
I1
sS'Write'
p717
I1
sS'player'
p718
I1
sS'London-based'
p719
I1
sS'experience'
p720
I2
sS'Sword'
p721
I1
sS'in'
p722
I212
sS'2049'
p723
I1
sS'trusted'
p724
I1
sS'if'
p725
I9
sS'grown'
p726
I1
sS'confirmed'
p727
I2
sS'suggest'
p728
I2
sS'make'
p729
I5
sS'Oh'
p730
I1
sS'sidelined'
p731
I1
sS'Kremlin'
p732
I2
sS'Pratt'
p733
I1
sS'potentially'
p734
I1
sS'harmony'
p735
I1
sS'unfortunate'
p736
I1
sS'big'
p737
I6
sS'Mocks'
p738
I1
sS'President'
p739
I33
sS'sidelines'
p740
I1
sS'bid'
p741
I2
sS'Cyclist'
p742
I1
sS'Lebanese'
p743
I1
sS'Obuchowski'
p744
I1
sS'immigration'
p745
I1
sS'pick'
p746
I1
sS'Adam'
p747
I1
sS'hand'
p748
I8
sS'Angeles'
p749
I3
sS'rais'
p750
I1
sS'ownership'
p751
I1
sS'Home'
p752
I1
sS'selfless'
p753
I1
sS'blamed'
p754
I1
sS'thoughts'
p755
I1
sS'Brexit-inspired'
p756
I1
sS'Las'
p757
I1
sS'programs'
p758
I2
sS'performance'
p759
I1
sS'1973'
p760
I3
sS'Kremlin-connected'
p761
I1
sS'1970'
p762
I2
sS'Jewish'
p763
I1
sS'resuming'
p764
I1
sS'thi'
p765
I1
sS'censured'
p766
I1
sS'the'
p767
I486
sS'camps'
p768
I1
sS'Mobil'
p769
I3
sS'left'
p770
I8
sS'leagues'
p771
I1
sS'agency'
p772
I1
sS'just'
p773
I8
sS'agoe'
p774
I1
sS'photo'
p775
I1
sS'sporting'
p776
I1
sS'overemphasis'
p777
I3
sS'proposes'
p778
I1
sS'fighters'
p779
I3
sS'eident'
p780
I1
sS'human'
p781
I4
sS'Featuring'
p782
I1
sS'yet'
p783
I3
sS'Sheriff'
p784
I1
sS'candidate'
p785
I1
sS'equipment'
p786
I1
sS'photographer'
p787
I1
sS'had'
p788
I14
sS'Jameson'
p789
I1
sS'Baghdad'
p790
I1
sS'easy'
p791
I2
sS'prison'
p792
I1
sS'News'
p793
I4
sS'has'
p794
I42
sS'cyber-based'
p795
I1
sS'gave'
p796
I2
sS'opt'
p797
I1
sS'Wilbur'
p798
I1
sS'James'
p799
I2
sS'survival'
p800
I1
sS'equipmen'
p801
I1
sS'possible'
p802
I2
sS'spanned'
p803
I1
sS'Morning'
p804
I3
sS'Flaking'
p805
I1
sS'birth'
p806
I1
sS'Missouri'
p807
I1
sS'judge'
p808
I1
sS'sanitary'
p809
I1
sS'unique'
p810
I2
sS'retreat'
p811
I2
sS'59'
p812
I1
sS'Trump'
p813
I46
sS'Frogs'
p814
I1
sS"'ball"
p815
I2
sS'seaside'
p816
I1
sS'50'
p817
I3
sS'Claudio'
p818
I1
sS'52'
p819
I1
sS'specific'
p820
I2
sS'festivities'
p821
I1
sS'officer'
p822
I1
sS'security'
p823
I3
sS'Pentagon'
p824
I1
sS'towards'
p825
I1
sS'Warren'
p826
I2
sS'Again'
p827
I1
sS'attorney'
p828
I1
sS'right'
p829
I4
sS'old'
p830
I2
sS'crowd'
p831
I2
sS'people'
p832
I10
sS'cybersecurity'
p833
I1
sS'successfully'
p834
I1
sS'begin'
p835
I1
sS'dead'
p836
I1
sS'eight-month'
p837
I1
sS'Commission'
p838
I1
sS'election'
p839
I8
sS'escape'
p840
I1
sS'critique'
p841
I1
sS'interf'
p842
I1
sS'deat'
p843
I1
sS'congratulate'
p844
I1
sS'Motherwell'
p845
I1
sS'for'
p846
I93
sS'counterprotesters'
p847
I1
sS'Getting'
p848
I1
sS'antimatter'
p849
I2
sS'ice'
p850
I1
sS'repression'
p851
I1
sS'arguing'
p852
I2
sS'fog'
p853
I1
sS'Let'
p854
I1
sS'landscape'
p855
I1
sS'summoned'
p856
I1
sS'denied'
p857
I1
sS'Chris'
p858
I4
sS'meaty'
p859
I1
sS'Keith'
p860
I1
sS'He'
p861
I3
sS'Shiite'
p862
I1
sS'marketing'
p863
I1
sS'three-team'
p864
I1
sS'shareholders'
p865
I1
sS'defensive'
p866
I1
sS'losing'
p867
I1
sS'flaws'
p868
I1
sS"'madness'"
p869
I1
sS'First'
p870
I2
sS'attacks'
p871
I2
sS'In-house'
p872
I1
sS'months'
p873
I7
sS'rim'
p874
I1
sS'assault'
p875
I2
sS'o'
I1
sS'misleading'
p876
I2
sS'ensure'
p877
I2
sS'eight'
p878
I1
sS'lacked'
p879
I1
sS'book'
p880
I2
sS'Best'
p881
I1
sS'Mode'
p882
I4
sS'raised'
p883
I1
sS'Feb'
p884
I1
sS'Horizon'
p885
I2
sS'Blacks'
p886
I1
sS'Dallas'
p887
I2
sS'civil'
p888
I2
sS'Scotland'
p889
I2
sS'bound'
p890
I1
sS'son'
p891
I6
sS'down'
p892
I5
sS'SUV'
p893
I1
sS'Aaron'
p894
I1
sS'George'
p895
I2
sS'soon'
p896
I1
sS'Darth'
p897
I1
sS'ISIS'
p898
I3
sS'deal'
p899
I4
sS'support'
p900
I3
sS'tennis'
p901
I2
sS'legislation'
p902
I3
sS'payment'
p903
I1
sS'sends'
p904
I1
sS'way'
p905
I11
sS'call'
p906
I1
sS'NBA'
p907
I3
sS'was'
p908
I51
sS'war'
p909
I3
sS'across'
p910
I1
sS'Djokovic'
p911
I1
sS'head'
p912
I2
sS'DNA'
p913
I2
sS'form'
p914
I1
sS'offer'
p915
I1
sS'forming'
p916
I1
sS'fireworks'
p917
I2
sS'wireless'
p918
I1
sS'taken'
p919
I2
sS'heat'
p920
I2
sS'hear'
p921
I2
sS"Freestyle'"
p922
I1
sS'solar'
p923
I2
sS'Parris'
p924
I1
sS'reset'
p925
I1
sS'Golden'
p926
I1
sS'builds'
p927
I1
sS'versions'
p928
I1
sS'prevents'
p929
I3
sS'manylistic'
p930
I1
sS'helicopter'
p931
I1
sS'tell'
p932
I2
sS'County'
p933
I3
sS'economic'
p934
I2
sS'cosmos'
p935
I1
sS'panels'
p936
I1
sS'propaganda'
p937
I1
sS'Ballerina'
p938
I1
sS'proud'
p939
I1
sS'classic'
p940
I2
sS'request'
p941
I1
sS'umpire'
p942
I2
sS'Free'
p943
I2
sS'evidence'
p944
I3
sS'Functionality'
p945
I2
sS'promised'
p946
I3
sS'accounting'
p947
I1
sS'ship'
p948
I1
sS'Trumportunities'
p949
I1
sS'check'
p950
I1
sS'triangles'
p951
I1
sS'Bumble'
p952
I1
sS'Begin'
p953
I1
sS'Francisco'
p954
I2
sS'Handle'
p955
I1
sS'no'
p956
I11
sS'clings'
p957
I1
sS'ne'
p958
I1
sS'Cornwall'
p959
I1
sS'tin'
p960
I1
sS'Nolan'
p961
I1
sS'role'
p962
I1
sS'holding'
p963
I2
sS'test'
p964
I6
sS'developers'
p965
I2
sS'erosion'
p966
I1
sS'company'
p967
I10
sS'picture'
p968
I2
sS"'s"
p969
I4
sS'models'
p970
I1
sS'Leeds'
p971
I1
sS'outreach'
p972
I1
sS'diet'
p973
I1
sS'Melbourne'
p974
I2
sS'concurrent'
p975
I1
sS'authoritarianism'
p976
I1
sS'propelling'
p977
I1
sS'scores'
p978
I1
sS'authorities'
p979
I5
sS'weekend'
p980
I2
sS'Gardens'
p981
I1
sS'died'
p982
I8
sS'billion'
p983
I5
sS'longer'
p984
I3
sS'Doha'
p985
I1
sS"Tomorrow's"
p986
I1
sS'Charles'
p987
I1
sS'Sgt'
p988
I1
sS'together'
p989
I5
sS'Jess'
p990
I1
sS'weapons'
p991
I1
sS'time'
p992
I12
sS'push'
p993
I2
sS'Roger'
p994
I1
sS'Moscow'
p995
I3
sS'songs'
p996
I3
sS'neighbors'
p997
I1
sS'breadth'
p998
I1
sS'coach'
p999
I1
sS'Ps'
p1000
I1
sS'Ten'
p1001
I1
sS'Buffett'
p1002
I1
sS'eldest'
p1003
I1
sS"film's"
p1004
I1
sS'integration'
p1005
I1
sS'selection'
p1006
I1
sS'comments'
p1007
I1
sS'mimic'
p1008
I1
sS'battle'
p1009
I6
sS'Indiana'
p1010
I2
sS'Pride'
p1011
I3
sS"Magazine's"
p1012
I1
sS'Neath'
p1013
I1
sS'devoted'
p1014
I1
sS'Jessica'
p1015
I1
sS'zone'
p1016
I1
sS'foe'
p1017
I1
sS'honoring'
p1018
I1
sS'Spoilers'
p1019
I1
sS'Exactly'
p1020
I1
sS'Petya'
p1021
I1
sS'Netanyahu'
p1022
I1
sS'de-facto'
p1023
I1
sS'30pm'
p1024
I1
sS'finally'
p1025
I2
sS'praised'
p1026
I2
sS'promoting'
p1027
I1
sS"Mexico's"
p1028
I1
sS'terror'
p1029
I1
sS'Atlanta'
p1030
I2
sS'Bandicoot'
p1031
I2
sS'Day'
p1032
I3
sS'southwest'
p1033
I1
sS'town'
p1034
I1
sS'smartphone'
p1035
I1
sS'advantage'
p1036
I2
sS'interbred'
p1037
I4
sS'consolidation'
p1038
I1
sS'choice'
p1039
I1
sS'two-time'
p1040
I1
sS'Athletics'
p1041
I2
sS'Jersey'
p1042
I2
sS'cool'
p1043
I1
sS'discovered'
p1044
I1
sS'Just'
p1045
I2
sS'did'
p1046
I6
sS'die'
p1047
I1
sS'dig'
p1048
I2
sS'Tax'
p1049
I2
sS'gun'
p1050
I1
sS'leave'
p1051
I1
sS'p'
I1
sS'settle'
p1052
I1
sS'team'
p1053
I2
sS'speculation'
p1054
I1
sS'round'
p1055
I4
sS'Kevin'
p1056
I5
sS'upper'
p1057
I1
sS'Rex'
p1058
I4
sS'plummet'
p1059
I1
sS'says'
p1060
I17
sS'Campaigners'
p1061
I1
sS'al-Abadi'
p1062
I5
sS'Merger'
p1063
I1
sS'dealing'
p1064
I1
sS'Rep'
p1065
I1
sS'southwestern'
p1066
I1
sS'cyber'
p1067
I3
sS'overhaul'
p1068
I1
sS'cost'
p1069
I1
sS'Shakespeare'
p1070
I1
sS'scarce'
p1071
I1
sS'de-escalation'
p1072
I1
sS'patient'
p1073
I1
sS'bacteria'
p1074
I1
sS'majors'
p1075
I2
sS'enticing'
p1076
I1
sS'Sessionsf'
p1077
I1
sS'Lowe'
p1078
I1
sS'stands'
p1079
I2
sS'PCs'
p1080
I1
sS'celebrated'
p1081
I2
sS'shares'
p1082
I2
sS'current'
p1083
I2
sS'Cruz'
p1084
I1
sS'Martian'
p1085
I1
sS'goes'
p1086
I2
sS'retrea'
p1087
I1
sS'During'
p1088
I1
sS'falling'
p1089
I1
sS"Pence's"
p1090
I1
sS'Lopez'
p1091
I1
sS'Renewable'
p1092
I1
sS'Md'
p1093
I1
sS'Bill'
p1094
I3
sS'explosion'
p1095
I1
sS'Mideast'
p1096
I1
sS'Mc'
p1097
I4
sS'inauguration'
p1098
I1
sS'raided'
p1099
I1
sS'water'
p1100
I1
sS'lu'
p1101
I1
sS'team-by-team'
p1102
I2
sS'groups'
p1103
I2
sS'English'
p1104
I2
sS'Nostalgic'
p1105
I1
sS'along'
p1106
I2
sS'refused'
p1107
I1
sS'appears'
p1108
I2
sS'change'
p1109
I7
sS'Warner'
p1110
I1
sS'Webb'
p1111
I1
sS'boy'
p1112
I1
sS"Sessions'"
p1113
I1
sS'Hugo'
p1114
I1
sS'flames'
p1115
I1
sS'battling'
p1116
I3
sS'suggestion'
p1117
I1
sS'usually'
p1118
I1
sS'ill-fated'
p1119
I1
sS'Inc'
p1120
I1
sS"country's"
p1121
I1
sS'reclaim'
p1122
I1
sS'lowers'
p1123
I1
sS'love'
p1124
I2
sS'Justice'
p1125
I5
sS"It's"
p1126
I5
sS'When'
p1127
I1
sS'marked'
p1128
I2
sS'histories'
p1129
I1
sS'Unions'
p1130
I1
sS'fake'
p1131
I1
sS'DOS'
p1132
I1
sS'crisis'
p1133
I3
sS'market'
p1134
I3
sS'regex'
p1135
I1
sS'Sanders'
p1136
I1
sS'Australia'
p1137
I1
sS'filmo'
p1138
I2
sS'troops'
p1139
I1
sS'working'
p1140
I1
sS'Billionaire'
p1141
I2
sS'angry'
p1142
I1
sS'give'
p1143
I1
sS'visit'
p1144
I1
sS'by'
p1145
I36
sS'scenarios'
p1146
I1
sS'live'
p1147
I2
sS'Awards'
p1148
I1
sS'cigar-smoking'
p1149
I1
sS'films'
p1150
I2
sS'cited'
p1151
I1
sS'today'
p1152
I3
sS'GUSH'
p1153
I1
sS'shine'
p1154
I1
sS'October'
p1155
I1
sS'teased'
p1156
I1
sS'Plea'
p1157
I1
sS'one-two'
p1158
I1
sS'python'
p1159
I1
sS'share'
p1160
I3
sS'apparent'
p1161
I2
sS"series'"
p1162
I1
sS'employee'
p1163
I1
sS'Goofy'
p1164
I1
sS"Angelala's"
p1165
I1
sS'Eilidh'
p1166
I1
sS'effort'
p1167
I2
sS'Latest'
p1168
I2
sS'organizations'
p1169
I1
sS'pushed'
p1170
I1
sS'German'
p1171
I1
sS'car'
p1172
I2
sS'Allied'
p1173
I1
sS'cap'
p1174
I1
sS'believes'
p1175
I2
sS'impasse'
p1176
I3
sS'sour'
p1177
I2
sS'can'
p1178
I12
sS'9th'
p1179
I2
sS'following'
p1180
I6
sS'making'
p1181
I3
sS'fun'
p1182
I2
sS'Children'
p1183
I1
sS'address'
p1184
I1
sS'Out'
p1185
I2
sS'streak'
p1186
I1
sS'claim'
p1187
I2
sS'Harewood'
p1188
I1
sS'Renate'
p1189
I1
sS'figure'
p1190
I2
sS'syntaxes'
p1191
I1
sS'Federal'
p1192
I5
sS"didn't"
p1193
I1
sS'agent'
p1194
I1
sS'heard'
p1195
I1
sS'fortunes'
p1196
I1
sS'dropped'
p1197
I2
sS'hides'
p1198
I1
sS'allowed'
p1199
I1
sS'stole'
p1200
I1
sS'Mexican'
p1201
I1
sS'productive'
p1202
I1
sS'bankrupt'
p1203
I3
sS'divided'
p1204
I1
sS'Who'
p1205
I4
sS'1'
I1
sS'fourth'
p1206
I1
sS'reapplying'
p1207
I1
sS'Why'
p1208
I3
sS'146'
p1209
I1
sS'map'
p1210
I1
sS'backtracked'
p1211
I1
sS'Proenza'
p1212
I1
sS'mat'
p1213
I1
sS'Mansions'
p1214
I1
sS'huge'
p1215
I2
sS'may'
p1216
I7
sS'spot'
p1217
I1
sS'respective'
p1218
I1
sS'fueled'
p1219
I1
sS'membership'
p1220
I1
sS'4th'
p1221
I1
sS'Martin'
p1222
I1
sS'date'
p1223
I1
sS'such'
p1224
I4
sS'heroes'
p1225
I2
sS'truly'
p1226
I2
sS'revealed'
p1227
I3
sS'man'
p1228
I8
sS'stress'
p1229
I1
sS'pro-feminist'
p1230
I1
sS'moments'
p1231
I1
sS'joint'
p1232
I1
sS'long-range'
p1233
I1
sS'Marlins'
p1234
I1
sS"agenda'"
p1235
I1
sS'persons'
p1236
I1
sS'hailed'
p1237
I1
sS'so'
p1238
I10
sS'increase'
p1239
I1
sS'pulled'
p1240
I1
sS'talk'
p1241
I3
sS'exclusive'
p1242
I1
sS'constituents'
p1243
I2
sS"Amazon's"
p1244
I1
sS'Wyoming'
p1245
I1
sS'wildfires'
p1246
I1
sS'years'
p1247
I12
sS'brain'
p1248
I1
sS'Genetic'
p1249
I1
sS'tablets'
p1250
I2
sS'in-store'
p1251
I1
sS'pitch'
p1252
I1
sS'White'
p1253
I6
sS'still'
p1254
I6
sS'birds'
p1255
I1
sS'froze'
p1256
I1
sS'Regain'
p1257
I1
sS'police'
p1258
I8
sS'monitor'
p1259
I1
sS'acknowledge'
p1260
I1
sS'presence'
p1261
I1
sS'Rail'
p1262
I1
sS'clearest'
p1263
I1
sS"he'd"
p1264
I2
sS'attraction'
p1265
I2
sS'offers'
p1266
I1
sS'policy'
p1267
I5
sS'ent'
p1268
I1
sS'parades'
p1269
I1
sS'happened'
p1270
I2
sS'within'
p1271
I4
sS'qualifies'
p1272
I1
sS'civilian'
p1273
I1
sS'matches'
p1274
I3
sS'Deutsche'
p1275
I1
sS'nation'
p1276
I2
sS'interview'
p1277
I2
sS'Lucasfilm'
p1278
I1
sS'subscribers'
p1279
I1
sS"kids'"
p1280
I2
sS'not'
p1281
I25
sS'Tower'
p1282
I1
sS'now'
p1283
I8
sS'discuss'
p1284
I3
sS'nor'
p1285
I1
sS'commuters'
p1286
I1
sS'Burgos'
p1287
I1
sS'shouted'
p1288
I1
sS'name'
p1289
I1
sS'Stephens'
p1290
I1
sS'Everything'
p1291
I1
sS'corners'
p1292
I1
sS'47'
p1293
I1
sS'Cheats'
p1294
I2
sS'rock'
p1295
I1
sS'Campaigning'
p1296
I1
sS'Event'
p1297
I1
sS'A'
I48
sS'Detectives'
p1298
I1
sS'significantly'
p1299
I1
sS'ed'
p1300
I1
sS'ap0arent'
p1301
I1
sS'fr'
p1302
I1
sS'Live'
p1303
I3
sS'year'
p1304
I11
sS'happen'
p1305
I1
sS'Caroline'
p1306
I2
sS'Seattle-based'
p1307
I1
sS'hacker'
p1308
I1
sS'living'
p1309
I2
sS'opened'
p1310
I1
sS'Cityassidy'
p1311
I1
sS'factors'
p1312
I1
sS'profit'
p1313
I1
sS'tensions'
p1314
I3
sS'Michigan'
p1315
I1
sS'Welcome'
p1316
I1
sS'interference'
p1317
I8
sS"manager's"
p1318
I1
sS'abide'
p1319
I1
sS'looking'
p1320
I4
sS'investigation'
p1321
I4
sS'trauma'
p1322
I1
sS"shouldn't"
p1323
I2
sS'hacked'
p1324
I1
sS'internet'
p1325
I2
sS'suggesting'
p1326
I3
sS'correct'
p1327
I1
sS'shows'
p1328
I4
sS'Commerce'
p1329
I1
sS'attended'
p1330
I3
sS'Rights'
p1331
I1
sS'ort'
p1332
I1
sS'million'
p1333
I10
sS'face-to-face'
p1334
I1
sS'governing'
p1335
I1
sS'disrespect'
p1336
I1
sS'all-rounder'
p1337
I1
sS'ork'
p1338
I1
sS'Marks'
p1339
I1
sS'Security'
p1340
I1
sS"month's"
p1341
I1
sS'technocrats'
p1342
I1
sS'partner'
p1343
I1
sS'underwear'
p1344
I1
sS'Already'
p1345
I1
sS'language'
p1346
I1
sS'dinosaurs'
p1347
I2
sS'waiter'
p1348
I1
sS'flare'
p1349
I1
sS'listings'
p1350
I1
sS'programming'
p1351
I1
sS'honest'
p1352
I1
sS'turn'
p1353
I2
sS'person'
p1354
I1
sS'place'
p1355
I1
sS'aboard'
p1356
I1
sS'styles'
p1357
I1
sS'Sonnta'
p1358
I1
sS'widow'
p1359
I2
sS'think'
p1360
I2
sS'1000'
p1361
I1
sS'Even'
p1362
I1
sS'Incr'
p1363
I1
sS'flying'
p1364
I1
sS'Rumors'
p1365
I1
sS'onl'
p1366
I1
sS'revenue'
p1367
I2
sS'dungeons'
p1368
I1
sS'There'
p1369
I4
sS'one'
p1370
I15
sS'Black'
p1371
I1
sS'textual'
p1372
I1
sS'Rookie'
p1373
I1
sS'carry'
p1374
I1
sS'impossible'
p1375
I1
sS'sounds'
p1376
I1
sS'Neo1973'
p1377
I1
sS'engineer'
p1378
I1
sS'city'
p1379
I6
sS'given'
p1380
I3
sS'Monday'
p1381
I2
sS'Investigations'
p1382
I1
sS'ex-wife'
p1383
I1
sS'caught'
p1384
I1
sS'Area'
p1385
I1
sS'self-hosted'
p1386
I1
sS'2'
I6
sS'stuffed'
p1387
I1
sS'convene'
p1388
I1
sS'legally'
p1389
I1
sS'five-part'
p1390
I1
sS'Spider-Man'
p1391
I3
sS'speaking'
p1392
I1
sS'meme'
p1393
I1
sS'exploring'
p1394
I1
sS'Trumpd'
p1395
I1
sS'Oncor'
p1396
I2
sS'that'
p1397
I85
sS'turbulent'
p1398
I1
sS'circulated'
p1399
I1
sS'meddling'
p1400
I4
sS'veers'
p1401
I1
sS'released'
p1402
I6
sS'Trumpt'
p1403
I1
sS'Miles'
p1404
I1
sS'Issue'
p1405
I1
sS'attempt'
p1406
I2
sS'operates'
p1407
I1
sS'surged'
p1408
I2
sS'than'
p1409
I25
sS"here's"
p1410
I1
sS'11'
p1411
I3
sS'10'
p1412
I7
sS'Seven'
p1413
I1
sS'12'
p1414
I3
sS'14'
p1415
I1
sS'17'
p1416
I2
sS'16'
p1417
I1
sS'Newsne'
p1418
I1
sS'rival'
p1419
I1
sS'Sears'
p1420
I1
sS'future'
p1421
I3
sS'were'
p1422
I12
sS'Plannerracteron'
p1423
I1
sS'published'
p1424
I1
sS'and'
p1425
I207
sS'gathering'
p1426
I1
sS'54bn'
p1427
I1
sS'Court'
p1428
I6
sS'investors'
p1429
I1
sS"He's"
p1430
I2
sS'Destabilizing'
p1431
I1
sS'revolt'
p1432
I1
sS'topics'
p1433
I1
sS'pri'
p1434
I1
sS'DC'
p1435
I1
sS'sad'
p1436
I1
sS'ant'
p1437
I1
sS'say'
p1438
I6
sS'conspiracy'
p1439
I1
sS'self-medication'
p1440
I1
sS"Monogram's"
p1441
I1
sS'Valley'
p1442
I1
sS'Crawford'
p1443
I1
sS'any'
p1444
I5
sS'sat'
p1445
I1
sS'Do'
p1446
I1
sS'Shaun'
p1447
I1
sS'offering'
p1448
I1
sS'efficient'
p1449
I1
sS'ideas'
p1450
I2
sS'Meddling'
p1451
I1
sS'note'
p1452
I1
sS'Famous'
p1453
I1
sS'potential'
p1454
I4
sS'take'
p1455
I5
sS'fracture'
p1456
I2
sS'online'
p1457
I1
sS'Turbulence'
p1458
I1
sS'OPEC'
p1459
I1
sS'Hall'
p1460
I2
sS'channel'
p1461
I2
sS'Democrats'
p1462
I2
sS'Legislature'
p1463
I1
sS'urge'
p1464
I1
sS'thug'
p1465
I1
sS'sure'
p1466
I2
sS'pain'
p1467
I1
sS'investigations'
p1468
I2
sS'track'
p1469
I3
sS'paid'
p1470
I2
sS'Visa-'
p1471
I1
sS'beta'
p1472
I1
sS'Wyn'
p1473
I1
sS'Tommy'
p1474
I2
sS'GOP'
p1475
I1
sS'grueling'
p1476
I1
sS'Overwatch'
p1477
I1
sS'Praying'
p1478
I1
sS'especially'
p1479
I1
sS'350'
p1480
I1
sS'athletes'
p1481
I2
sS'removed'
p1482
I1
sS'That'
p1483
I2
sS'Humans'
p1484
I1
sS'duo'
p1485
I1
sS'tooth'
p1486
I1
sS'federal'
p1487
I1
sS'Antarctica'
p1488
I1
sS'clearing'
p1489
I1
sS'professional'
p1490
I2
sS'senior'
p1491
I2
sS'filing'
p1492
I2
sS'precise'
p1493
I1
sS'jewelerr'
p1494
I1
sS'playoffs'
p1495
I1
sS'Barry'
p1496
I2
sS'filed'
p1497
I2
sS'infant'
p1498
I1
sS'egg-shape'
p1499
I1
sS'reassessing'
p1500
I1
sS'bright'
p1501
I1
sS'Reuters'
p1502
I2
sS'Liquified'
p1503
I1
sS'hack'
p1504
I1
sS'high-profile'
p1505
I2
sS'corner'
p1506
I1
sS'aggressive'
p1507
I1
sS'Ben'
p1508
I1
sS'data'
p1509
I4
sS'Rigoberto'
p1510
I1
sS'cheeseburgers'
p1511
I1
sS'ground'
p1512
I2
sS"father's"
p1513
I1
sS'We'
p1514
I2
sS'slow'
p1515
I1
sS'brutally'
p1516
I1
sS'title'
p1517
I1
sS'daily'
p1518
I2
sS'Kansas'
p1519
I1
sS'3'
I1
sS'Wi'
p1520
I1
sS'only'
p1521
I6
sS'going'
p1522
I1
sS'black'
p1523
I1
sS'sexual-harassment'
p1524
I1
sS'top-line'
p1525
I1
sS'cautioned'
p1526
I2
sS'Housing'
p1527
I1
sS'dispute'
p1528
I3
sS'ranking'
p1529
I1
sS'ite'
p1530
I1
sS'get'
p1531
I6
sS'hostage'
p1532
I1
sS'cannon'
p1533
I1
sS'Ewood'
p1534
I1
sS'Soundtrackttt'
p1535
I2
sS'cannot'
p1536
I2
sS'nearly'
p1537
I4
sS'lighter'
p1538
I1
sS'progress'
p1539
I1
sS'trade'
p1540
I5
sS'July'
p1541
I11
sS'celebrate'
p1542
I2
sS'prime'
p1543
I3
sS'denting'
p1544
I1
sS'PI'
p1545
I1
sS'girl'
p1546
I1
sS'radar'
p1547
I1
sS"you'll"
p1548
I1
sS'fainted'
p1549
I1
sS'morning'
p1550
I5
sS'Clendon'
p1551
I1
sS'interpersonal'
p1552
I1
sS'predicted'
p1553
I1
sS'worries'
p1554
I1
sS'marred'
p1555
I1
sS'where'
p1556
I4
sS'Geraint'
p1557
I1
sS'husband'
p1558
I1
sS'Aintree'
p1559
I1
sS'reveals'
p1560
I1
sS'declared'
p1561
I1
sS'keyboard'
p1562
I1
sS"France's"
p1563
I1
sS'famine'
p1564
I1
sS'position'
p1565
I1
sS'college'
p1566
I1
sS'us'
p1567
I8
sS'collects'
p1568
I1
sS'surgery'
p1569
I1
sS'murdereded'
p1570
I1
sS'capitals'
p1571
I1
sS'Chestnut'
p1572
I1
sS'Stefan'
p1573
I1
sS'Johnson'
p1574
I1
sS'ride-hailing'
p1575
I3
sS'ways'
p1576
I3
sS'review'
p1577
I1
sS'Yates'
p1578
I1
sS'commitments'
p1579
I1
sS'anks'
p1580
I1
sS'colours'
p1581
I1
sS'behind'
p1582
I6
sS'staffer'
p1583
I1
sS'between'
p1584
I8
sS'illiberal'
p1585
I1
sS'checks'
p1586
I1
sS'basis'
p1587
I1
sS'notice'
p1588
I1
sS'jobs'
p1589
I1
sS'parent'
p1590
I1
sS'fearless'
p1591
I1
sS"'Blue's"
p1592
I1
sS'doesnling'
p1593
I1
sS'killing'
p1594
I1
sS'blame'
p1595
I1
sS'LGBT'
p1596
I2
sS'ntempt'
p1597
I1
sS'Team'
p1598
I1
sS'article'
p1599
I2
sS'harshly'
p1600
I1
sS'cities'
p1601
I6
sS'come'
p1602
I3
sS'TODAY'
p1603
I1
sS'oust'
p1604
I2
sS'Hathaway'
p1605
I1
sS'rugby'
p1606
I2
sS'Smarter'
p1607
I1
sS'Jenners'
p1608
I1
sS'many'
p1609
I7
sS'23'
p1610
I1
sS"doesnBeast'"
p1611
I1
sS'according'
p1612
I2
sS'called'
p1613
I6
sS's'
I8
sS'Watford'
p1614
I1
sS'remake'
p1615
I1
sS'railway'
p1616
I1
sS'prequel'
p1617
I1
sS"can't"
p1618
I2
sS'deported'
p1619
I1
sS"'The"
p1620
I1
sS'among'
p1621
I4
sS'stretches'
p1622
I1
sS'Death'
p1623
I1
sS'madness'
p1624
I3
sS'cancer'
p1625
I1
sS'Sir'
p1626
I1
sS'reluctance'
p1627
I1
sS'pot'
p1628
I1
sS'Trilogy'
p1629
I1
sS'venues'
p1630
I1
sS'Note'
p1631
I2
sS'61'
p1632
I2
sS'stopover'
p1633
I1
sS'learning'
p1634
I2
sS'radicalized'
p1635
I2
sS'jeweller'
p1636
I1
sS'Pictured'
p1637
I1
sS'adults'
p1638
I1
sS'Electric'
p1639
I1
sS'Beauty'
p1640
I1
sS'stretch'
p1641
I1
sS'rebuild'
p1642
I1
sS'detected'
p1643
I1
sS'But'
p1644
I7
sS'mark'
p1645
I1
sS'peaceful'
p1646
I1
sS'Knee'
p1647
I1
sS'escalates'
p1648
I1
sS'Stonefire'
p1649
I1
sS'donler'
p1650
I1
sS'wants'
p1651
I1
sS'enable'
p1652
I1
sS'resistance'
p1653
I2
sS'connections'
p1654
I1
sS'dramatic'
p1655
I1
sS'minister'
p1656
I2
sS'Path'
p1657
I1
sS'regained'
p1658
I1
sS'suspected'
p1659
I2
sS'former'
p1660
I10
sS'captivity'
p1661
I1
sS'case'
p1662
I2
sS'Sub-Zero'
p1663
I1
sS'prompting'
p1664
I1
sS'processes'
p1665
I1
sS'UFO'
p1666
I1
sS'these'
p1667
I4
sS'chargesself-contradictory'
p1668
I1
sS'cash'
p1669
I1
sS'cast'
p1670
I1
sS'Causey'
p1671
I1
sS'mayors'
p1672
I1
sS'investigating'
p1673
I1
sS'Circuit'
p1674
I1
sS'Apologyg'
p1675
I1
sS'agnostic'
p1676
I1
sS'couples'
p1677
I1
sS'middle'
p1678
I2
sS'someone'
p1679
I1
sS'Celtic'
p1680
I1
sS'Billionaires'
p1681
I1
sS'Valencia'
p1682
I1
sS'Hidden'
p1683
I1
sS'Destin'
p1684
I1
sS'Keoghan'
p1685
I1
sS'decisively'
p1686
I1
sS'different'
p1687
I5
sS'perhaps'
p1688
I1
sS'Marchtizensssage'
p1689
I1
sS'author'
p1690
I1
sS'media'
p1691
I5
sS'tour'
p1692
I1
sS'shifts'
p1693
I1
sS'poetic'
p1694
I1
sS'speech'
p1695
I3
sS'buys'
p1696
I1
sS'struggling'
p1697
I1
sS'document'
p1698
I1
sS'Lanka'
p1699
I1
sS'derby'
p1700
I1
sS'week'
p1701
I11
sS"They're"
p1702
I1
sS'barbed'
p1703
I1
sS'oil'
p1704
I3
sS'edged'
p1705
I1
sS'I'
I11
sS'IS'
p1706
I1
sS'driver'
p1707
I1
sS'director'
p1708
I1
sS'average'
p1709
I1
sS'running'
p1710
I4
sS'investigates'
p1711
I1
sS'favorites'
p1712
I1
sS"'do"
p1713
I1
sS'Lich'
p1714
I1
sS'blockade'
p1715
I1
sS'charges'
p1716
I1
sS'Is'
p1717
I4
sS'constitutional'
p1718
I1
sS'It'
p1719
I13
sS'Golang'
p1720
I1
sS'TV'
p1721
I1
sS'severe'
p1722
I1
sS'without'
p1723
I2
sS'solve'
p1724
I1
sS'comes'
p1725
I1
sS'In'
p1726
I7
sS'very'
p1727
I2
sS'Nazi'
p1728
I3
sS'Port'
p1729
I1
sS'bodies'
p1730
I1
sS'If'
p1731
I3
sS'duty'
p1732
I1
sS'Reserveate'
p1733
I1
sS'United'
p1734
I7
sS'aborted'
p1735
I1
sS'being'
p1736
I11
sS'money'
p1737
I3
sS'fueling'
p1738
I1
sS'Maduro'
p1739
I1
sS'actress'
p1740
I1
sS'219'
p1741
I3
sS'foot'
p1742
I2
sS'violent'
p1743
I3
sS'Lions'
p1744
I1
sS'Jeremy'
p1745
I2
sS'hopeful'
p1746
I1
sS'captured'
p1747
I1
sS'halfway'
p1748
I1
sS'death'
p1749
I2
sS'Profitunt'
p1750
I1
sS'Her'
p1751
I2
sS'Zach'
p1752
I1
sS'seems'
p1753
I3
sS'Missile'
p1754
I1
sS'verse'
p1755
I1
sS'4'
I6
sS'Guantanamo'
p1756
I2
sS'extensive'
p1757
I2
sS'disrupt'
p1758
I1
sS'Travel'
p1759
I2
sS'real'
p1760
I2
sS'around'
p1761
I6
sS'rules'
p1762
I3
sS'Island'
p1763
I1
sS'specimen'
p1764
I1
sS'Headphones'
p1765
I1
sS'early'
p1766
I7
sS'inflation'
p1767
I1
sS'grid'
p1768
I1
sS'presidentJr'
p1769
I1
sS'confined'
p1770
I5
sS'world'
p1771
I10
sS'boycotted'
p1772
I1
sS'accepted'
p1773
I2
sS'ruled'
p1774
I1
sS'Pterodactyl'
p1775
I2
sS'Froome'
p1776
I1
sS'Show'
p1777
I1
sS"'Rainbow"
p1778
I1
sS'greeting'
p1779
I2
sS'government-backed'
p1780
I1
sS'facing'
p1781
I1
sS"London's"
p1782
I2
sS'Galvanized'
p1783
I1
sS'London'
p1784
I5
sS't'
I3
sS'always'
p1785
I2
sS'Western-backed'
p1786
I1
sS'Globe'
p1787
I1
sS'Before'
p1788
I3
sS'debut'
p1789
I4
sS'66'
p1790
I2
sS'Army'
p1791
I1
sS'West'
p1792
I8
sS'titan'
p1793
I1
sS'Mark'
p1794
I1
sS'Master'
p1795
I4
sS'New'
p1796
I8
sS'narrowed'
p1797
I1
sS'wrongly'
p1798
I1
sS'provided'
p1799
I2
sS'Hello'
p1800
I1
sS'Garcetti'
p1801
I1
sS'confirm'
p1802
I1
sS'Landrake'
p1803
I1
sS'Netflix'
p1804
I1
sS'unmatched'
p1805
I2
sS'Informations'
p1806
I2
sS'critical'
p1807
I1
sS'provides'
p1808
I2
sS'learningNew'
p1809
I1
sS'tainting'
p1810
I1
sS'content'
p1811
I1
sS'knife'
p1812
I1
sS'Daimler'
p1813
I1
sS'business'
p1814
I3
sS'seconds'
p1815
I1
sS'retains'
p1816
I1
sS'punched'
p1817
I1
sS'Scottish'
p1818
I1
sS'notable'
p1819
I1
sS'iconic'
p1820
I2
sS'Therapist'
p1821
I1
sS'antiquities'
p1822
I1
sS'broken'
p1823
I1
sS'Playing'
p1824
I1
sS'beaches'
p1825
I2
sS'open-source'
p1826
I1
sS'itto'
p1827
I1
sS'on'
p1828
I129
sS'son-in-law'
p1829
I1
sS'Trial'
p1830
I1
sS'of'
p1831
I233
sS'industry'
p1832
I2
sS'powered'
p1833
I1
sS'discussed'
p1834
I3
sS'drag'
p1835
I1
sS'Check'
p1836
I1
sS'escalating'
p1837
I1
sS'stand'
p1838
I1
sS'testimony'
p1839
I1
sS'discusses'
p1840
I1
sS'or'
p1841
I10
sS'road'
p1842
I1
sS'Story'
p1843
I1
sS'protests'
p1844
I4
sS'Crapser'
p1845
I1
sS'spreading'
p1846
I1
sS'lent'
p1847
I1
sS'signing'
p1848
I1
sS'Least'
p1849
I1
sS'rolling'
p1850
I1
sS'involvement'
p1851
I3
sS'Paid'
p1852
I1
sS'compatibles'
p1853
I1
sS'apologize'
p1854
I1
sS'watchdog'
p1855
I1
sS'your'
p1856
I6
sS'T-shirts'
p1857
I1
sS'nationot'
p1858
I2
sS'Infinity'
p1859
I1
sS'her'
p1860
I9
sS'area'
p1861
I2
sS'there'
p1862
I6
sS'alleged'
p1863
I3
sS'start'
p1864
I3
sS'poured'
p1865
I1
sS'untapped'
p1866
I1
sS'lot'
p1867
I2
sS'nuclear-armed'
p1868
I1
sS'decisive'
p1869
I1
sS'bubble'
p1870
I1
sS'Obama'
p1871
I1
sS'revamped'
p1872
I1
sS'Emma'
p1873
I1
sS'complete'
p1874
I1
sS'enough'
p1875
I1
sS'J'
I3
sS'pitcher'
p1876
I1
sS'idea'
p1877
I4
sS"Britain's"
p1878
I2
sS'Elective'
p1879
I1
sS'Harry'
p1880
I2
sS'trying'
p1881
I6
sS'with'
p1882
I76
sS'featuring'
p1883
I1
sS'Duty'
p1884
I1
sS'hire'
p1885
I1
sS'fraud'
p1886
I1
sS'arranged'
p1887
I2
sS'Hales'
p1888
I1
sS'engage'
p1889
I1
sS'submitted'
p1890
I1
sS'House'
p1891
I4
sS'doesnit'
p1892
I1
sS'lawfully'
p1893
I1
sS'unveils'
p1894
I1
sS'Society'
p1895
I1
sS'Eddie'
p1896
I1
sS'criticised'
p1897
I1
sS'Grenfell'
p1898
I1
sS'agree'
p1899
I1
sS'misery'
p1900
I1
sS'strongly'
p1901
I1
sS'Allgemeine'
p1902
I3
sS'Wil'
p1903
I1
sS'citizenship'
p1904
I1
sS'USA'
p1905
I1
sS'babies'
p1906
I1
sS'Thursday'
p1907
I5
sS'an'
p1908
I53
sS'How'
p1909
I1
sS'as'
p1910
I62
sS'ar'
p1911
I2
sS'at'
p1912
I58
sS'Homeland'
p1913
I1
sS'ay'
p1914
I1
sS'controlled'
p1915
I1
sS'hospitals'
p1916
I1
sS'film'
p1917
I1
sS'cream'
p1918
I1
sS'again'
p1919
I1
sS'Reading'
p1920
I3
sS'llings'
p1921
I1
sS'Lives'
p1922
I1
sS'storage'
p1923
I1
sS"House's"
p1924
I1
sS'Dark'
p1925
I1
sS'intercontinental'
p1926
I2
sS'5'
I3
sS'comment'
p1927
I1
sS'you'
p1928
I11
sS'really'
p1929
I4
sS"president's"
p1930
I1
sS'At'
p1931
I6
sS'sprints'
p1932
I1
sS'Alex'
p1933
I1
sS'Vladimir'
p1934
I4
sS'separate'
p1935
I1
sS'students'
p1936
I1
sS'gutting'
p1937
I1
sS'k-magazined'
p1938
I1
sS"'Us"
p1939
I1
sS'offseason'
p1940
I1
sS'important'
p1941
I1
sS'CNN'
p1942
I4
sS'Bashar'
p1943
I1
sS'stocks'
p1944
I1
sS'pool'
p1945
I1
sS'BMG'
p1946
I1
sS'Mother-of-one'
p1947
I1
sS'individual'
p1948
I1
sS'Aubrey'
p1949
I1
sS'calls'
p1950
I1
sS'wife'
p1951
I1
sS'Runner'
p1952
I1
sS'unmitigated'
p1953
I1
sS'mantises'
p1954
I1
sS'76-year-old'
p1955
I1
sS"city's"
p1956
I1
sS'websites'
p1957
I1
sS'Likely'
p1958
I1
sS'passed'
p1959
I1
sS'u'
I1
sS'Syriater'
p1960
I1
sS'Year'
p1961
I1
sS'overseas'
p1962
I1
sS'Paperwhite'
p1963
I1
sS'wielding'
p1964
I1
sS'Canada'
p1965
I1
sS'all'
p1966
I19
sS'since'
p1967
I7
sS'ESPN'
p1968
I2
sS'maximum'
p1969
I1
sS'sluggers'
p1970
I1
sS'caused'
p1971
I2
sS'lack'
p1972
I1
sS'Obamacare'
p1973
I2
sS'crosshairs'
p1974
I1
sS'donith'
p1975
I1
sS'month'
p1976
I8
sS'founded'
p1977
I1
sS'Martinez'
p1978
I1
sS'deadline'
p1979
I1
sS'Take'
p1980
I1
sS'hernia'
p1981
I1
sS'Var'
p1982
I2
sS'follow'
p1983
I1
sS'settlement'
p1984
I1
sS'children'
p1985
I1
sS'shattered'
p1986
I2
sS'glimpse'
p1987
I1
sS'Championship'
p1988
I2
sS"Canada's"
p1989
I1
sS'Keala'
p1990
I1
sS'hunting'
p1991
I1
sS'tw'
p1992
I1
sS'subjected'
p1993
I1
sS'ts'
p1994
I8
sS'opportunities'
p1995
I1
sS'to'
p1996
I224
sS'program'
p1997
I2
sS'scrambled'
p1998
I1
sS'preserved'
p1999
I3
sS'th'
p2000
I4
sS'barely'
p2001
I1
sS'lawmakers'
p2002
I3
sS'enjoying'
p2003
I3
sS'Menken'
p2004
I1
sS'sound'
p2005
I2
sS'belonging'
p2006
I1
sS'global'
p2007
I4
sS'parcel'
p2008
I1
sS'returning'
p2009
I1
sS'far'
p2010
I3
sS'Alaska'
p2011
I1
sS'saved'
p2012
I1
sS'focus'
p2013
I2
sS'GIF'
p2014
I1
sS"Lions'"
p2015
I1
sS'fan'
p2016
I1
sS'hatching'
p2017
I1
sS'got'
p2018
I2
sS'winning'
p2019
I3
sS"I'm"
p2020
I2
sS'dictatorship'
p2021
I1
sS"Don't"
p2022
I1
sS'--'
p2023
I10
sS'skeletal'
p2024
I1
sS'list'
p2025
I1
sS'Novak'
p2026
I1
sS'Fionn'
p2027
I1
sS'Chinaifts'
p2028
I1
sS'programme'
p2029
I1
sS'Fir'
p2030
I1
sS"Minister's"
p2031
I1
sS'TSA'
p2032
I1
sS'past'
p2033
I3
sS'go'
p2034
I3
sS'rate'
p2035
I1
sS'design'
p2036
I1
sS'lawyer'
p2037
I10
sS'pass'
p2038
I4
sS'further'
p2039
I2
sS'East'
p2040
I1
sS'investment'
p2041
I1
sS"Trump's"
p2042
I12
sS'what'
p2043
I17
sS'Korea'
p2044
I11
sS'41-year'
p2045
I1
sS'favor'
p2046
I1
sS'dirt'
p2047
I2
sS"Wild's"
p2048
I1
sS'version'
p2049
I1
sS'scientists'
p2050
I1
sS'Sloane'
p2051
I1
sS'public'
p2052
I5
sS'movement'
p2053
I1
sS'multinational'
p2054
I1
sS'Short'
p2055
I1
sS'Prosecutors'
p2056
I1
sS'recruits'
p2057
I1
sS'Charlie'
p2058
I1
sS'Proud'
p2059
I1
sS'answers'
p2060
I2
sS"nation's"
p2061
I1
sS'hours'
p2062
I5
sS'rigged'
p2063
I1
sS'civilians'
p2064
I1
sS'Frameworkhat'
p2065
I2
sS'Whole'
p2066
I3
sS'search'
p2067
I3
sS'prosecutors'
p2068
I1
sS'ahead'
p2069
I1
sS'Razanandrongobe'
p2070
I1
sS'repeal'
p2071
I2
sS'soldier'
p2072
I2
sS'social'
p2073
I3
sS'action'
p2074
I1
sS'Jared'
p2075
I1
sS'options'
p2076
I1
sS'Victor'
p2077
I1
sS'S8'
p2078
I1
sS'followed'
p2079
I1
sS'ase'
p2080
I1
sS'family'
p2081
I7
sS'S3'
p2082
I1
sS'father'
p2083
I2
sS'Top'
p2084
I1
sS'screens'
p2085
I2
sS'ask'
p2086
I1
sS'mutant'
p2087
I1
sS'regimens'
p2088
I1
sS'intermediate-range'
p2089
I1
sS'trained'
p2090
I2
sS'Tom'
p2091
I6
sS'armed'
p2092
I2
sS'attendant'
p2093
I1
sS'emoji'
p2094
I1
sS'Europe'
p2095
I4
sS'archived'
p2096
I1
sS'Crash'
p2097
I2
sS'takes'
p2098
I2
sS'one-day'
p2099
I1
sS'contains'
p2100
I1
sS'Overall'
p2101
I1
sS'two'
p2102
I13
sS'Regex'
p2103
I1
sS'captain'
p2104
I1
sS'Mattachine'
p2105
I1
sS'Corp'
p2106
I5
sS'6'
I2
sS'Russian'
p2107
I19
sS'Picasso'
p2108
I1
sS'injury'
p2109
I2
sS'Meaningful'
p2110
I1
sS'Cory'
p2111
I1
sS'minor'
p2112
I2
sS'more'
p2113
I20
sS'teen'
p2114
I1
sS'knows'
p2115
I1
sS'stylistic'
p2116
I1
sS'thereMaybe'
p2117
I1
sS'staggering'
p2118
I1
sS'Trumpure'
p2119
I1
sS'line'
p2120
I1
sS'Wyatt'
p2121
I1
sS'tested'
p2122
I1
sS'flag'
p2123
I1
sS'So'
p2124
I2
sS'broke'
p2125
I1
sS'known'
p2126
I3
sS'Homecoming'
p2127
I2
sS'wrestled'
p2128
I1
sS'helped'
p2129
I1
sS'institutions'
p2130
I1
sS'include'
p2131
I1
sS"season's"
p2132
I1
sS'science'
p2133
I2
sS'shelves'
p2134
I2
sS'Toronto'
p2135
I1
sS'remain'
p2136
I1
sS'Ino'
p2137
I1
sS'nine'
p2138
I2
sS'reshaping'
p2139
I4
sS'embrace'
p2140
I1
sS'playable'
p2141
I1
sS'male'
p2142
I2
sS'history'
p2143
I1
sS'Conference'
p2144
I1
sS'Ef'
p2145
I1
sS'IBM'
p2146
I1
sS'pushes'
p2147
I1
sS'rejuvenate'
p2148
I1
sS'dislikes'
p2149
I2
sS'states'
p2150
I4
sS'collision'
p2151
I1
sS'downloading'
p2152
I1
sS'Bros'
p2153
I1
sS'sense'
p2154
I3
sS'Venezuelan'
p2155
I2
sS'simple'
p2156
I1
sS'firmly'
p2157
I1
sS'information'
p2158
I7
sS'needs'
p2159
I3
sS'court'
p2160
I4
sS'goal'
p2161
I1
sS'rather'
p2162
I1
sS'technology'
p2163
I1
sS'Wood'
p2164
I1
sS'iving'
p2165
I1
sS'Chandler'
p2166
I2
sS'hampered'
p2167
I1
sS'earnings'
p2168
I1
sS'possibly'
p2169
I1
sS'explains'
p2170
I1
sS'digital-first'
p2171
I1
sS'plant'
p2172
I1
sS'continues'
p2173
I2
sS'plans'
p2174
I6
sS'Israel'
p2175
I2
sS'Foreign'
p2176
I1
sS'Stateew'
p2177
I1
sS'Matter'
p2178
I1
sS'tries'
p2179
I1
sS'plane'
p2180
I1
sS'ambassador'
p2181
I3
sS'blood'
p2182
I1
sS'countering'
p2183
I1
sS'coming'
p2184
I4
sS'Swiss'
p2185
I1
sS'Syria'
p2186
I6
sS'response'
p2187
I1
sS'carmaker'
p2188
I1
sS'a'
I228
sS'Grammy-winning'
p2189
I1
sS'Everyone'
p2190
I1
sS'Belgrade'
p2191
I2
sS'Mexico'
p2192
I1
sS'tweeting'
p2193
I1
sS'jihadist'
p2194
I1
sS'campaign-style'
p2195
I1
sS'departure'
p2196
I1
sS'Deep'
p2197
I1
sS'mislead'
p2198
I2
sS'Player'
p2199
I1
sS'Sean'
p2200
I2
sS'NSA'
p2201
I1
sS'banks'
p2202
I1
sS'Elaine'
p2203
I1
sS'dream'
p2204
I1
sS'playing'
p2205
I1
sS"that's"
p2206
I2
sS'What'
p2207
I2
sS'help'
p2208
I2
sS"don't"
p2209
I2
sS'cked'
p2210
I1
sS'Africans'
p2211
I1
sS'closeness'
p2212
I1
sS'mission'
p2213
I1
sS'Illinois'
p2214
I2
sS'held'
p2215
I2
sS'scientist'
p2216
I1
sS'through'
p2217
I5
sS"Holland's"
p2218
I1
sS'suffer'
p2219
I1
sS'its'
p2220
I27
sS'Texas'
p2221
I3
sS'features'
p2222
I2
sS'24'
p2223
I1
sS'20'
p2224
I1
sS'21'
p2225
I1
sS'22'
p2226
I1
sS'shortstop'
p2227
I1
sS'assaulting'
p2228
I1
sS'AOL'
p2229
I1
sS'28'
p2230
I1
sS'Livenerracteron'
p2231
I1
sS'actually'
p2232
I4
sS'clashes'
p2233
I1
sS'environmentalism'
p2234
I1
sS'absence'
p2235
I1
sS'three-match'
p2236
I1
sS'systems'
p2237
I2
sS'Hamburg'
p2238
I6
sS'inquiry'
p2239
I1
sS'offensive'
p2240
I1
sS'might'
p2241
I2
sS"haven't"
p2242
I1
sS'Nokia-branded'
p2243
I1
sS'Stokes'
p2244
I1
sS'frogs'
p2245
I1
sS'good'
p2246
I4
sS'return'
p2247
I2
sS'roomful'
p2248
I1
sS'seeking'
p2249
I2
sS'food'
p2250
I1
sS'Schouler'
p2251
I1
sS'Michael'
p2252
I1
sS'Bay'
p2253
I2
sS'15am'
p2254
I1
sS'walls'
p2255
I1
sS'Vatican'
p2256
I1
sS'Reseda'
p2257
I1
sS'Bannon'
p2258
I2
sS'well-known'
p2259
I1
sS'shop'
p2260
I1
sS'hails'
p2261
I1
sS'fully'
p2262
I1
sS'Aliens'
p2263
I2
sS'Potter'
p2264
I2
sS'IPO'
p2265
I1
sS'evade'
p2266
I3
sS'inequality'
p2267
I2
sS'Council'
p2268
I1
sS'positions'
p2269
I1
sS'Ready'
p2270
I1
sS'found'
p2271
I6
sS'Liam'
p2272
I1
sS"isn't"
p2273
I2
sS'referred'
p2274
I1
sS'Pozzi'
p2275
I1
sS'End'
p2276
I1
sS'weight'
p2277
I1
sS'generation'
p2278
I1
sS'house'
p2279
I3
sS'energy'
p2280
I2
sS'hard'
p2281
I2
sS'crash-bandicoot-n-sane-trilogy-9-minutes-of-coc'
p2282
I1
sS'Zelda'
p2283
I4
sS'each'
p2284
I3
sS'pirated'
p2285
I1
sS'Joseph'
p2286
I1
sS'Federer'
p2287
I1
sS'beyond'
p2288
I2
sS'event'
p2289
I4
sS'More'
p2290
I2
sS'Medium'
p2291
I1
sS'creditor'
p2292
I1
sS'missed'
p2293
I1
sS'19'
p2294
I1
sS'Firefighters'
p2295
I1
sS'surrounded'
p2296
I1
sS'misses'
p2297
I1
sS'Defense'
p2298
I3
sS'7'
I6
sS'tactician'
p2299
I2
sS'issue'
p2300
I1
sS'nest'
p2301
I1
sS'Ukraine'
p2302
I1
sS'unelected'
p2303
I1
sS'fiber'
p2304
I2
sS'ast'
p2305
I2
sS'gut'
p2306
I1
sS'horse'
p2307
I1
sS'extraordinary'
p2308
I1
sS'Jordan'
p2309
I2
sS'included'
p2310
I1
sS'Now'
p2311
I1
sS'members'
p2312
I4
sS'backed'
p2313
I1
sS'ET'
p2314
I1
sS'teach'
p2315
I3
sS'u0026ndash'
p2316
I1
sS'beginning'
p2317
I1
sS'shot'
p2318
I1
sS'Yankees'
p2319
I1
sS'Trumpstment'
p2320
I1
sS'RMT'
p2321
I1
sS'launch'
p2322
I3
sS'Boston'
p2323
I1
sS'computers'
p2324
I2
sS'give-and-take'
p2325
I1
sS'success'
p2326
I1
sS'Walmsley'
p2327
I1
sS"year's"
p2328
I2
sS'Bron'
p2329
I2
sS'including'
p2330
I1
sS'threat'
p2331
I1
sS'dismissed'
p2332
I1
sS'barber'
p2333
I1
sS'Marksove'
p2334
I1
sS'Hidalgo'
p2335
I1
sS'major'
p2336
I5
sS'A38'
p2337
I1
sS'graduate'
p2338
I1
sS'slipped'
p2339
I1
sS'prevent'
p2340
I1
sS'Oklahoma'
p2341
I2
sS'contender'
p2342
I1
sS'Konta'
p2343
I1
sS'number'
p2344
I1
sS'linking'
p2345
I1
sS'feet'
p2346
I1
sS'smaller'
p2347
I2
sS'least'
p2348
I6
sS'Goes'
p2349
I1
sS'fees'
p2350
I2
sS'campground'
p2351
I1
sS'wages'
p2352
I2
sS'fiction'
p2353
I1
sS'Sirius'
p2354
I2
sS'Triggs-Hodge'
p2355
I1
sS'story'
p2356
I1
sS'tadpoles'
p2357
I1
sS'leverage'
p2358
I1
sS'rookies'
p2359
I1
sS'leading'
p2360
I2
sS'babyt'
p2361
I1
sS'porn'
p2362
I1
sS'comma'
p2363
I1
sS'militant'
p2364
I1
sS'Larry'
p2365
I1
sS'identity'
p2366
I1
sS'statement'
p2367
I3
sS'Delta'
p2368
I1
sS'rates'
p2369
I1
sS'hundred'
p2370
I1
sS'ancial'
p2371
I2
sS'GTA'
p2372
I1
sS'Helpful'
p2373
I2
sS'relationship'
p2374
I1
sS'trapped'
p2375
I1
sS'personalistic'
p2376
I1
sS'doctoro'
p2377
I1
sS'mentality'
p2378
I1
sS'immediate'
p2379
I1
sS'No'
p2380
I2
sS'treasurer'
p2381
I1
sS'part'
p2382
I1
sS'Darren'
p2383
I1
sS'Hanson'
p2384
I1
sS'focusing'
p2385
I1
sS'second-biggest'
p2386
I1
sS'believe'
p2387
I2
sS'four-day'
p2388
I1
sS'kind'
p2389
I1
sS'b'
I1
sS'imperiled'
p2390
I1
sS'double'
p2391
I1
sS'status'
p2392
I1
sS'warfa'
p2393
I1
sS'Senate'
p2394
I7
sS'determined'
p2395
I1
sS'supposed'
p2396
I1
sS'beneficial'
p2397
I1
sS'toward'
p2398
I1
sS'Letting'
p2399
I1
sS'shirts'
p2400
I1
sS'Alun'
p2401
I1
sS"Jong-nam's"
p2402
I1
sS'nominee'
p2403
I1
sS'alongside'
p2404
I2
sS'Connell'
p2405
I1
sS'Breath'
p2406
I6
sS'pedestrian'
p2407
I1
sS'substantial'
p2408
I1
sS'aged'
p2409
I1
sS'orders'
p2410
I1
sS'sell'
p2411
I3
sS'States'
p2412
I7
sS'Norkett'
p2413
I1
sS'Ukrainian'
p2414
I2
sS'cave'
p2415
I1
sS'officers'
p2416
I2
sS'targets'
p2417
I1
sS'also'
p2418
I6
sS'drone'
p2419
I1
sS'Germany'
p2420
I4
sS'chairman'
p2421
I2
sS'Kim'
p2422
I3
sS'showcases'
p2423
I1
sS'finding'
p2424
I1
sS'Pyongyang'
p2425
I1
sS'With'
p2426
I7
sS'se'
p2427
I1
sS'play'
p2428
I1
sS'experienced'
p2429
I2
sS'electric'
p2430
I1
sS'Cauldrons'
p2431
I2
sS'eggs'
p2432
I1
sS'measures'
p2433
I1
sS'reach'
p2434
I2
sS"Iraq's"
p2435
I1
sS'most'
p2436
I3
sS'virus'
p2437
I3
sS'70'
p2438
I1
sS'services'
p2439
I1
sS'The'
p2440
I100
sS'-Russian'
p2441
I2
sS'approved'
p2442
I1
sS'Rhys'
p2443
I1
sS'appear'
p2444
I1
sS'Google'
p2445
I1
sS'mobile'
p2446
I1
sS'Caretaker'
p2447
I1
sS'covet'
p2448
I1
sS'popularity'
p2449
I1
sS'EU'
p2450
I1
sS'traditional'
p2451
I1
sS'hints'
p2452
I3
sS'amphibian'
p2453
I1
sS'British'
p2454
I6
sS'charged'
p2455
I1
sS'attacking'
p2456
I1
sS'Turnies'
p2457
I1
sS'Hal'
p2458
I1
sS'rebels'
p2459
I1
sS'gold'
p2460
I2
sS'summer'
p2461
I2
sS'obligations'
p2462
I2
sS'Tillerson'
p2463
I4
sS'league'
p2464
I1
sS'HBO'
p2465
I1
sS'alert'
p2466
I1
sS'expressed'
p2467
I1
sS'uctible'
p2468
I1
sS'stores'
p2469
I1
sS'Has'
p2470
I2
sS'find'
p2471
I2
sS'snags'
p2472
I1
sS'gangs'
p2473
I1
sS'Affordable'
p2474
I1
sS'access'
p2475
I1
sS'giant'
p2476
I5
sS'regulations'
p2477
I1
sS'northern'
p2478
I1
sS'Glastonbury'
p2479
I2
sS'EW'
p2480
I3
sS'Premiere'
p2481
I1
sS'writes'
p2482
I2
sS'writer'
p2483
I1
sS'distributed'
p2484
I1
sS'Heat'
p2485
I1
sS'Jr'
p2486
I7
sS'Labs'
p2487
I1
sS'failed'
p2488
I2
sS'Caterpillar'
p2489
I1
sS'Masterpiece'
p2490
I1
sS'pretty'
p2491
I2
sS'8'
I3
sS'distributes'
p2492
I1
sS'Prime'
p2493
I5
sS'sacking'
p2494
I1
sS'his'
p2495
I61
sS'hit'
p2496
I2
sS'strongholds'
p2497
I1
sS'banned'
p2498
I1
sS'capital'
p2499
I2
sS'Lakers'
p2500
I4
sS'famous'
p2501
I1
sS'While'
p2502
I2
sS'Xi'
p2503
I1
sS'preparing'
p2504
I1
sS'lifted'
p2505
I1
sS'shared'
p2506
I1
sS'Paxton'
p2507
I3
sS'during'
p2508
I12
sS'him'
p2509
I11
sS'dampened'
p2510
I1
sS'Olympic'
p2511
I2
sS'roles'
p2512
I1
sS'sources'
p2513
I2
sS'boost'
p2514
I1
sS'medicines'
p2515
I1
sS'generally'
p2516
I1
sS'Bluetooth'
p2517
I1
sS'Held'
p2518
I1
sS'investigate'
p2519
I1
sS'common'
p2520
I1
sS'activity'
p2521
I1
sS'Claimed'
p2522
I2
sS'kill'
p2523
I2
sS'river'
p2524
I1
sS'Whitehead'
p2525
I1
sS'set'
p2526
I8
sS'art'
p2527
I3
sS'reminisced'
p2528
I1
sS'For'
p2529
I1
sS'achieved'
p2530
I1
sS'intelligence'
p2531
I2
sS'activists'
p2532
I1
sS'Fox'
p2533
I1
sS'Hotz'
p2534
I2
sS'20million'
p2535
I1
sS'culture'
p2536
I1
sS'see'
p2537
I3
sS'defense'
p2538
I4
sS'Spickenreuther'
p2539
I1
sS'are'
p2540
I39
sS'bot4le'
p2541
I1
sS'close'
p2542
I4
sS'Firms'
p2543
I1
sS'locals'
p2544
I3
sS'Talbot'
p2545
I1
sS'threats'
p2546
I1
sS'expert'
p2547
I1
sS'Terri'
p2548
I1
sS'movie'
p2549
I2
sS'Park'
p2550
I2
sS'strafed'
p2551
I1
sS'fans'
p2552
I1
sS'won'
p2553
I1
sS'envelopes'
p2554
I1
sS'probably'
p2555
I1
sS'Costco'
p2556
I1
sS'pictured'
p2557
I3
sS'risks'
p2558
I2
sS'available'
p2559
I1
sS'solo'
p2560
I1
sS'creating'
p2561
I1
sS'missing'
p2562
I1
sS'targeted'
p2563
I2
sS'Could'
p2564
I2
sS'attention'
p2565
I1
sS'Florida'
p2566
I4
sS'Against'
p2567
I1
sS'incident'
p2568
I2
sS'Sane'
p2569
I1
sS'opposition'
p2570
I3
sS'franchise'
p2571
I2
sS'hacking'
p2572
I1
sS'both'
p2573
I5
sS'c'
I1
sS'last'
p2574
I11
sS'restaurant'
p2575
I1
sS'Jaws'
p2576
I1
sS'annual'
p2577
I1
sS'foreign'
p2578
I2
sS'Steve'
p2579
I1
sS'XM'
p2580
I2
sS'became'
p2581
I1
sS'Mosul'
p2582
I9
sS'crushing'
p2583
I1
sS'Graham'
p2584
I1
sS'Haider'
p2585
I5
sS'ttempts'
p2586
I1
sS'millions'
p2587
I2
sS'vehicles'
p2588
I1
sS'liked'
p2589
I1
sS'danced'
p2590
I1
sS'point'
p2591
I5
sS'battery'
p2592
I1
sS'format'
p2593
I1
sS'Mr'
p2594
I3
sS'community'
p2595
I2
sS'alone'
p2596
I1
sS'agents'
p2597
I1
sS'raw'
p2598
I1
sS'War'
p2599
I1
sS'Rosa'
p2600
I1
sS'decline'
p2601
I1
sS'raise'
p2602
I3
sS'Citizensssage'
p2603
I1
sS'stamp'
p2604
I1
sS'create'
p2605
I1
sS'political'
p2606
I5
sS'due'
p2607
I1
sS'strategy'
p2608
I1
sS'convicted'
p2609
I1
sS'whom'
p2610
I1
sS'secret'
p2611
I1
sS'California'
p2612
I1
sS"Ranieri's"
p2613
I1
sS'collected'
p2614
I1
sS'threaten'
p2615
I1
sS'test-launched'
p2616
I2
sS'territory'
p2617
I2
sS'meeting'
p2618
I19
sS'woke'
p2619
I1
sS'treatment'
p2620
I2
sS'firm'
p2621
I2
sS'lived'
p2622
I1
sS'flight'
p2623
I3
sS'champion'
p2624
I3
sS'web-slinging'
p2625
I1
sS'fire'
p2626
I8
sS'firefighters'
p2627
I3
sS'wet'
p2628
I1
sS'N'
I1
sS'moment'
p2629
I1
sS'usage'
p2630
I1
sS'Switch'
p2631
I1
sS'38'
p2632
I1
sS'determination'
p2633
I1
sS'representative'
p2634
I2
sS'prices'
p2635
I1
sS'wedding'
p2636
I1
sS'Starting'
p2637
I2
sS'wheeled'
p2638
I1
sS'Old'
p2639
I1
sS'look'
p2640
I4
sS'talking'
p2641
I1
sS'straight'
p2642
I2
sS'bill'
p2643
I4
sS'budget'
p2644
I3
sS'governor'
p2645
I2
sS'while'
p2646
I5
sS'kick'
p2647
I1
sS'behavior'
p2648
I1
sS'error'
p2649
I1
sS'theret'
p2650
I1
sS'animated'
p2651
I1
sS'31'
p2652
I2
sS'Market'
p2653
I2
sS'scheduled'
p2654
I1
sS'Qatar'
p2655
I1
sS'Italy'
p2656
I1
sS'century'
p2657
I2
sS'37'
p2658
I1
sS'Indians'
p2659
I1
sS'itself'
p2660
I2
sS'headway'
p2661
I1
sS'triple'
p2662
I1
sS'feese'
p2663
I1
sS'ready'
p2664
I2
sS'Elliott'
p2665
I1
sS'Denisova'
p2666
I1
sS'all-important'
p2667
I1
sS'at-bats'
p2668
I1
sS'Helmets'
p2669
I1
sS'confirms'
p2670
I1
sS'fate'
p2671
I1
sS'Manafort'
p2672
I1
sS'Indigenous'
p2673
I1
sS'9'
I3
sS'Palm'
p2674
I1
sS'advise'
p2675
I1
sS'higher'
p2676
I2
sS'showcased'
p2677
I1
sS'used'
p2678
I7
sS'lawyers'
p2679
I2
sS'Slugger'
p2680
I1
sS'bonus'
p2681
I1
sS'Cox'
p2682
I1
sS'defeat'
p2683
I1
sS'Podcasts'
p2684
I1
sS'Flack'
p2685
I1
sS'peacemaking'
p2686
I2
sS'levels'
p2687
I2
sS'uses'
p2688
I1
sS'cleaning'
p2689
I1
sS'residents'
p2690
I5
sS'predecessors'
p2691
I2
sS'recent'
p2692
I1
sS'Archie'
p2693
I1
sS'dark'
p2694
I3
sS'lower'
p2695
I1
sS"people'"
p2696
I1
sS'Carter'
p2697
I1
sS'Councils'
p2698
I2
sS'dancing'
p2699
I2
sS'docked'
p2700
I1
sS'spent'
p2701
I2
sS'analysis'
p2702
I6
sS'Oscars'
p2703
I1
sS'Rate'
p2704
I1
sS'Dederer'
p2705
I1
sS'machinery'
p2706
I2
sS'y'
I3
sS'visualizations'
p2707
I1
sS'know'
p2708
I6
sS'patient-led'
p2709
I1
sS'Living'
p2710
I1
sS'echoing'
p2711
I1
sS'Takes'
p2712
I1
sS'Defiant'
p2713
I1
sS'Klux'
p2714
I1
sS'named'
p2715
I2
sS'All-Star'
p2716
I3
sS'Virginia'
p2717
I1
sS'Andrew'
p2718
I3
sS'Fans'
p2719
I1
sS'questions'
p2720
I1
sS'Internet'
p2721
I3
sS'retired'
p2722
I1
sS'alternative'
p2723
I1
sS'injuries'
p2724
I1
sS'ministry'
p2725
I1
sS'cut'
p2726
I1
sS'acquiring'
p2727
I1
sS'majority'
p2728
I1
sS'advisers'
p2729
I1
sS'workers'
p2730
I2
sS'Nokia'
p2731
I1
sS'education'
p2732
I1
sS'Bang'
p2733
I1
sS"Sparrow's"
p2734
I1
sS"Cycling's"
p2735
I1
sS'source'
p2736
I1
sS'Christopher'
p2737
I1
sS'location'
p2738
I1
sS'nfirst'
p2739
I1
sS'Avengers'
p2740
I1
sS'useless'
p2741
I1
sS'On'
p2742
I2
sS'customers'
p2743
I2
sS'march'
p2744
I1
sS'Worldpay'
p2745
I1
sS'self-disclosure'
p2746
I2
sS'then-campaign'
p2747
I1
sS'couple'
p2748
I3
sS'health-overhaul'
p2749
I1
sS'Air'
p2750
I1
sS'self-contradictory'
p2751
I1
sS'DOD'
p2752
I1
sS'Antigua'
p2753
I1
sS'projects'
p2754
I1
sS'helpful'
p2755
I1
sS'Pakistan'
p2756
I1
sS'd'
I4
sS"ain't"
p2757
I1
sS'u0026D'
p2758
I2
sS'message'
p2759
I2
sS'commanders'
p2760
I2
sS'Whatever'
p2761
I2
sS'crawled'
p2762
I1
sS'popular'
p2763
I3
sS'G-20'
p2764
I3
sS'disorder'
p2765
I1
sS'essential'
p2766
I1
sS'circles'
p2767
I1
sS'Management'
p2768
I1
sS'33rd'
p2769
I1
sS'Gulf'
p2770
I1
sS'creation'
p2771
I1
sS'some'
p2772
I12
sS'back'
p2773
I8
sS'streaming'
p2774
I1
sS'added'
p2775
I2
sS'Andy'
p2776
I2
sS'sight'
p2777
I2
sS'probe'
p2778
I1
sS'Ways'
p2779
I1
sS'newsletter'
p2780
I1
sS'fanfare'
p2781
I1
sS'ourselves'
p2782
I1
sS'delivered'
p2783
I1
sS'Remasters'
p2784
I1
sS'Mostly'
p2785
I1
sS'contacts'
p2786
I3
sS'Fire'
p2787
I2
sS'Malkiewicz'
p2788
I1
sS'decision'
p2789
I3
sS'Foods'
p2790
I3
sS'per'
p2791
I3
sS'seller'
p2792
I1
sS'adoptive'
p2793
I1
sS'prom'
p2794
I1
sS'civilization'
p2795
I1
sS'tends'
p2796
I1
sS'Fyre'
p2797
I1
sS"Here's"
p2798
I3
sS'either'
p2799
I4
sS'be'
p2800
I30
sS'run'
p2801
I2
sS'Look'
p2802
I1
sS'300'
p2803
I2
sS'hypocritical'
p2804
I1
sS'Kurdish-Arab'
p2805
I1
sS'agreement'
p2806
I4
sS'Madagascarone'
p2807
I1
sS'Times'
p2808
I2
sS'feelings'
p2809
I1
sS'bu'
p2810
I1
sS'step'
p2811
I1
sS'Fs'
p2812
I1
sS'Russia'
p2813
I8
sS'August'
p2814
I1
sS'roundup'
p2815
I1
sS'Sanchez'
p2816
I1
sS'Jimmy'
p2817
I1
sS'anything'
p2818
I1
sS'Voters'
p2819
I1
sS'Rod'
p2820
I1
sS'Chief'
p2821
I1
sS'drama'
p2822
I1
sS'Eoin'
p2823
I1
sS'range'
p2824
I1
sS'regular'
p2825
I1
sS'Committee'
p2826
I1
sS'hatred'
p2827
I1
sS'Captain'
p2828
I1
sS'bankPresident'
p2829
I1
sS'inte'
p2830
I1
sS'computational'
p2831
I1
sS'Trumpikely'
p2832
I1
sS'plenty'
p2833
I1
sS'terrorists'
p2834
I1
sS'into'
p2835
I20
sS'conceded'
p2836
I1
sS'nse'
p2837
I1
sS'servers'
p2838
I2
sS'Their'
p2839
I1
sS"'It"
p2840
I1
sS'm-10'
p2841
I2
sS'lesson'
p2842
I1
sS'sports'
p2843
I2
sS'bankruptcy'
p2844
I2
sS'Danaher'
p2845
I1
sS'computer'
p2846
I2
sS'Awkward'
p2847
I1
sS'NAFTA'
p2848
I1
sS'Vulture'
p2849
I1
sS'long'
p2850
I5
sS'Anthony'
p2851
I2
sS'Eva'
p2852
I1
sS'vendors'
p2853
I1
sS'infected'
p2854
I3
sS'douse'
p2855
I1
sS'forward'
p2856
I1
sS'long-planned'
p2857
I1
sS'Ross'
p2858
I1
sS'Cancelling'
p2859
I1
sS'blueprint'
p2860
I1
sS'Bryan'
p2861
I1
sS'himself'
p2862
I5
sS'elsewhere'
p2863
I1
sS'wild-card'
p2864
I1
sS'collapsed'
p2865
I1
sS'Wedding'
p2866
I1
sS"Boston's"
p2867
I1
sS'Attorney'
p2868
I3
sS"ns'"
p2869
I1
sS't-shirt'
p2870
I1
sS'boys'
p2871
I1
sS'game'
p2872
I7
sS'Adrian'
p2873
I1
sS'inclu'
p2874
I1
sS'episode'
p2875
I1
sS'Moonlight'
p2876
I1
sS'raising'
p2877
I1
sS'posted'
p2878
I1
sS"I'll"
p2879
I1
sS'Beijing'
p2880
I2
sS'Irish'
p2881
I1
sS'Jeff'
p2882
I9
sS'Khadr'
p2883
I1
sS'Indoor'
p2884
I2
sS'pessimism'
p2885
I1
sS'up'
p2886
I14
sS'Murray'
p2887
I2
sS'ur'
p2888
I2
sS'exploration'
p2889
I1
sS'prosecutor'
p2890
I1
sS"Dynamics'"
p2891
I1
sS'Necromancer'
p2892
I2
sS'fried'
p2893
I1
sS'similar'
p2894
I2
sS'clear'
p2895
I5
sS'precipitated'
p2896
I2
sS'Nazim'
p2897
I1
sS'flop'
p2898
I1
sS'nationalist'
p2899
I1
sS'm'
I3
sS'doesn'
p2900
I1
sS'Terminal'
p2901
I1
sS'To'
p2902
I1
sS'associates'
p2903
I2
sS'curb'
p2904
I1
sS'Snap'
p2905
I1
sS'rally'
p2906
I4
sS'Haberstroh'
p2907
I1
sS'Fabio'
p2908
I1
sS'rehab'
p2909
I1
sS'rainbow'
p2910
I1
sS'ancestors'
p2911
I1
sS'puzzling'
p2912
I1
sS'May'
p2913
I2
sS'malicious'
p2914
I1
sS'ofonent'
p2915
I1
sS'teams'
p2916
I1
sS'application'
p2917
I1
sS'income'
p2918
I1
sS'department'
p2919
I1
sS'Relying'
p2920
I1
sS'draw'
p2921
I1
sS'users'
p2922
I1
sS'AG'
p2923
I1
sS'scandals'
p2924
I1
sS'problems'
p2925
I3
sS'Mike'
p2926
I1
sS'visits'
p2927
I1
sS'prepared'
p2928
I1
sS'helping'
p2929
I2
sS'AP'
p2930
I2
sS'militants'
p2931
I3
sS'Derby'
p2932
I1
sS'Jong-un'
p2933
I2
sS'Documentary'
p2934
I1
sS'sides'
p2935
I1
sS'Jawbone'
p2936
I1
sS'ago'
p2937
I7
sS'urged'
p2938
I1
sS'Beginning'
p2939
I1
sS'e'
I6
sS'algorithm'
p2940
I1
sS'vice'
p2941
I1
sS'age'
p2942
I2
sS'built'
p2943
I1
sS'Claire'
p2944
I1
sS'walked'
p2945
I2
sS'An'
p2946
I8
sS'As'
p2947
I5
sS'summit'
p2948
I6
sS'2007'
p2949
I1
sS'2005'
p2950
I1
sS'international'
p2951
I2
sS'2008'
p2952
I2
sS'once'
p2953
I1
sS'Bankrupt'
p2954
I1
sS'G20'
p2955
I6
sS'issued'
p2956
I1
sS'Jim'
p2957
I1
sS'results'
p2958
I1
sS'announ'
p2959
I1
sS'legal'
p2960
I4
sS'Department'
p2961
I7
sS'shrugged'
p2962
I1
sS'Isle'
p2963
I2
sS'issues'
p2964
I4
sS'seemed'
p2965
I1
sS'Award'
p2966
I2
sS'Union'
p2967
I1
sS'citing'
p2968
I1
sS'Montana'
p2969
I1
sS'newspalities'
p2970
I1
sS'blaze'
p2971
I1
sS'Trials'
p2972
I1
sS'Not'
p2973
I3
sS'fatal'
p2974
I1
sS'sent'
p2975
I1
sS'brigade'
p2976
I1
sS"'Spider-Man"
p2977
I1
sS'pay'
p2978
I3
sS'confirmation'
p2979
I3
sS'seized'
p2980
I1
sS'Holland'
p2981
I1
sS'Canadian'
p2982
I2
sS'itning'
p2983
I1
sS'unbeaten'
p2984
I1
sS'mour'
p2985
I1
sS'vibrator'
p2986
I1
sS'putting'
p2987
I1
sS'incoherent'
p2988
I1
sS'exits'
p2989
I1
sS'transmission'
p2990
I1
sS'experiencing'
p2991
I1
sS'notes'
p2992
I1
sS'f'
I3
sS'fewer'
p2993
I2
sS'damning'
p2994
I1
sS'deals'
p2995
I2
sS'Talking'
p2996
I1
sS'race'
p2997
I2
sS"week's"
p2998
I1
sS'three-judge'
p2999
I1
sS'populism'
p3000
I1
sS'ceasefire'
p3001
I2
sS'originally'
p3002
I1
sS'Neanderthal'
p3003
I1
sS'sifting'
p3004
I2
sS"Earhart's"
p3005
I1
sS'Bayona'
p3006
I1
sS'queer'
p3007
I1
sS'wrestling'
p3008
I1
sS'licensed'
p3009
I1
sS'State'
p3010
I15
sS'beach'
p3011
I1
sS'video'
p3012
I4
sS'traveling'
p3013
I1
sS'uncomfortable'
p3014
I1
sS'brokered'
p3015
I1
sS'plays'
p3016
I2
sS'power'
p3017
I6
sS'showcase'
p3018
I2
sS'wore'
p3019
I1
sS'wireframe'
p3020
I1
sS'Alan'
p3021
I1
sS'networks'
p3022
I1
sS'cell'
p3023
I1
sS'Boys'
p3024
I1
sS'experiment'
p3025
I1
sS'eating'
p3026
I1
sS'jurisdiction'
p3027
I1
sS'sixth'
p3028
I1
sS'Video'
p3029
I1
sS'firms'
p3030
I1
sS'America'
p3031
I2
sS'Former'
p3032
I1
sS'body'
p3033
I3
sS'impact'
p3034
I1
sS'led'
p3035
I2
sS'pushing'
p3036
I1
sS'punch'
p3037
I1
sS'Heintz'
p3038
I1
sS'growing'
p3039
I1
sS'les'
p3040
I1
sS'others'
p3041
I1
sS'IGN'
p3042
I2
sS'Pence'
p3043
I1
sS'arrive'
p3044
I1
sS'talent'
p3045
I1
sS'Chinese'
p3046
I1
sS'Premiership'
p3047
I1
sS'receive'
p3048
I2
sS'involved'
p3049
I2
sS'agoarksove'
p3050
I2
sS'30'
p3051
I1
sS'shades'
p3052
I1
sS'leaving'
p3053
I1
sS'suggests'
p3054
I1
sS'resulting'
p3055
I1
sS'Palo'
p3056
I1
sS'nervous'
p3057
I1
sS'climb'
p3058
I1
sS'makes'
p3059
I4
sS'involves'
p3060
I1
sS'Staff'
p3061
I1
sS'tunnel'
p3062
I1
sS'showing'
p3063
I1
sS'apple'
p3064
I1
sS'Doctor'
p3065
I1
sS'win'
p3066
I4
sS'private'
p3067
I1
sS'scaled'
p3068
I1
sS'Nick'
p3069
I2
sS'French'
p3070
I1
sS'dumbest'
p3071
I1
sS'apply'
p3072
I1
sS'standing'
p3073
I1
sS'use'
p3074
I3
sS'cheered'
p3075
I1
sS'from'
p3076
I50
sS'stream'
p3077
I1
sS'recalling'
p3078
I1
sS'whipping'
p3079
I1
sS'deos'
p3080
I1
sS'congratulated'
p3081
I2
sS'next'
p3082
I1
sS'few'
p3083
I4
sS'camera'
p3084
I1
sS'Hard'
p3085
I1
sS'Fi'
p3086
I1
sS'themselves'
p3087
I1
sS'stage'
p3088
I1
sS'Mattek-Sands'
p3089
I2
sS'upcoming'
p3090
I1
sS'baffled'
p3091
I1
sS'started'
p3092
I3
sS'Jack'
p3093
I2
sS'occurred'
p3094
I2
sS'missile'
p3095
I10
sS'grades'
p3096
I1
sS'Hodson'
p3097
I1
sS'DFJ'
p3098
I1
sS'minions'
p3099
I1
sS'charity'
p3100
I1
sS'high'
p3101
I2
sS'account'
p3102
I2
sS'sanctions'
p3103
I1
sS'this'
p3104
I20
sS'challenge'
p3105
I2
sS'when'
p3106
I8
sS'insists'
p3107
I3
sS'Pedestrian'
p3108
I1
sS'Birmingham'
p3109
I1
sS"Jenkins'"
p3110
I1
sS'island'
p3111
I1
sS'meet'
p3112
I1
sS'closing'
p3113
I2
sS'Nevada'
p3114
I1
sS'proof'
p3115
I1
sS'control'
p3116
I3
sS"'We"
p3117
I1
sS'Israeli'
p3118
I1
sS'violence'
p3119
I1
sS'Police'
p3120
I5
sS'unveiled'
p3121
I1
sS'Tupac'
p3122
I1
sS'providers'
p3123
I1
sS'process'
p3124
I1
sS'tax'
p3125
I1
sS'wealthy'
p3126
I2
sS'escaped'
p3127
I2
sS'Answered'
p3128
I2
sS'villain'
p3129
I1
sS'pulling'
p3130
I2
sS'something'
p3131
I1
sS'Party'
p3132
I2
sS'Policy'
p3133
I1
sS'prowess'
p3134
I1
sS'heari'
p3135
I1
sS'Trade'
p3136
I1
sS'self-driving'
p3137
I1
sS'native'
p3138
I1
sS'malware'
p3139
I2
sS'pure'
p3140
I1
sS'UKirk'
p3141
I1
sS'Astros'
p3142
I1
sS'six'
p3143
I1
sS'poetry'
p3144
I1
sS'regions'
p3145
I1
sS'winners'
p3146
I2
sS'fidgeting'
p3147
I1
sS'NHS'
p3148
I1
sS"China's"
p3149
I1
sS'instead'
p3150
I1
sS'intelligent'
p3151
I1
sS'memoir'
p3152
I1
sS'sim'
p3153
I1
sS'watery'
p3154
I1
sS'hurdles'
p3155
I1
sS'financ'
p3156
I1
sS'battered'
p3157
I1
sS'waters'
p3158
I1
sS'underway'
p3159
I1
sS'peace'
p3160
I1
sS'Alexis'
p3161
I1
sS'Mrs'
p3162
I1
sS'permanent'
p3163
I1
sS'Putin'
p3164
I7
sS'ties'
p3165
I1
sS'Sessi'
p3166
I1
sS'Joey'
p3167
I1
sS'Uber'
p3168
I7
sS'Apple'
p3169
I1
sS'arduous'
p3170
I1
sS'robot'
p3171
I1
sS'One'
p3172
I2
sS'chief'
p3173
I3
sS'agenda'
p3174
I1
sS'healthcare'
p3175
I3
sS'Really'
p3176
I1
sS'counted'
p3177
I1
sS"Zealand's"
p3178
I1
sS'longest'
p3179
I2
sS'cease-fire'
p3180
I1
sS'evolutionary'
p3181
I1
sS'aimed'
p3182
I1
sS'producer'
p3183
I1
sS'Kris'
p3184
I1
sS'Cubs'
p3185
I1
sS'move'
p3186
I2
sS'Minnesota'
p3187
I1
sS'alliance'
p3188
I1
sS"won't"
p3189
I2
sS'looks'
p3190
I1
sS'horns'
p3191
I1
sS'galaxy'
p3192
I1
sS'perfect'
p3193
I1
sS'video-gamers'
p3194
I2
sS'Multiple'
p3195
I1
sS'Serena'
p3196
I1
sS'ughts'
p3197
I1
sS'send'
p3198
I1
sS'American'
p3199
I5
sS'labor'
p3200
I1
sS'Director'
p3201
I2
sS'outed'
p3202
I1
sS'Championships'
p3203
I5
sS'Doyle'
p3204
I1
sS'Dyi'
p3205
I1
sS'nTo'
p3206
I1
sS'2014'
p3207
I4
sS'2017'
p3208
I6
sS'holiday'
p3209
I1
sS'once-common'
p3210
I1
sS'image'
p3211
I1
sS'ly'
p3212
I4
sS'Dubai'
p3213
I2
sS'Hawks'
p3214
I1
sS'crash'
p3215
I4
sS'greater'
p3216
I2
sS'later'
p3217
I1
sS'Miami'
p3218
I2
sS'auto'
p3219
I3
sS'material'
p3220
I2
sS'conductors'
p3221
I1
sS'earn'
p3222
I1
sS'disrupted'
p3223
I2
sS'Hosts'
p3224
I1
sS'Can'
p3225
I1
sS'hands'
p3226
I2
sS'Venus'
p3227
I2
sS'assets'
p3228
I2
sS'investor'
p3229
I1
sS'day'
p3230
I7
sS'presidential'
p3231
I2
sS'Summer'
p3232
I1
sS'Supreme'
p3233
I3
sS'Natural'
p3234
I1
sS'San'
p3235
I2
sS'Tayyip'
p3236
I1
sS'fundraiser'
p3237
I1
sS'mysterious'
p3238
I1
sS'Gard'
p3239
I2
sS'Lamby'
p3240
I1
sS'unpredictable'
p3241
I1
sS'mode'
p3242
I2
sS'shortage'
p3243
I1
sS'rising'
p3244
I1
sS'bills'
p3245
I1
sS'Over'
p3246
I1
sS'Ghost'
p3247
I1
sS'exacerbated'
p3248
I1
sS'From'
p3249
I8
sS'determine'
p3250
I2
sS'Consumers'
p3251
I1
sS'doing'
p3252
I1
sS'globe'
p3253
I1
sS'product'
p3254
I1
sS'related'
p3255
I1
sS'fraught'
p3256
I1
sS'Wolverine'
p3257
I1
sS'society'
p3258
I1
sS'88'
p3259
I1
sS'variety'
p3260
I1
sS'Which'
p3261
I1
sS'our'
p3262
I2
sS'restricted'
p3263
I1
sS'firefights'
p3264
I1
sS'sexual'
p3265
I1
sS'special'
p3266
I1
sS'out'
p3267
I15
sS'Noise'
p3268
I1
sS'140'
p3269
I1
sS"'"
I3
sS'Rio'
p3270
I1
sS'CEO'
p3271
I1
sS'announces'
p3272
I1
sS'defend'
p3273
I1
sS'foreign-born'
p3274
I1
sS'Agreement'
p3275
I1
sS'amassed'
p3276
I1
sS'critics'
p3277
I1
sS'mate'
p3278
I1
sS'Backlit'
p3279
I1
sS'Uran'
p3280
I1
sS'supports'
p3281
I1
sS'Think3'
p3282
I1
sS'announced'
p3283
I3
sS'ree'
p3284
I1
sS'achievements'
p3285
I1
sS'arrested'
p3286
I1
sS'Erdogan'
p3287
I1
sS'This'
p3288
I13
sS'WASHINGTON'
p3289
I1
sS'acked'
p3290
I1
sS'completely'
p3291
I1
sS'ect'
p3292
I1
sS'collection'
p3293
I1
sS'Gun'
p3294
I1
sS'regulatory'
p3295
I1
sS'Senator'
p3296
I1
sS'Watchtower'
p3297
I1
sS'allies'
p3298
I1
sS'prepare'
p3299
I1
sS'g'
I3
sS'could'
p3300
I9
sS'1981'
p3301
I2
sS'put'
p3302
I2
sS'Arsenal'
p3303
I1
sS'times'
p3304
I4
sS'counterpart'
p3305
I2
sS'surgeries'
p3306
I1
sS'length'
p3307
I1
sS'Wildcats'
p3308
I1
sS'Benjamin'
p3309
I1
sS'retail'
p3310
I1
sS'Franchises'
p3311
I1
sS'David'
p3312
I1
sS'Jinping'
p3313
I1
sS'respond'
p3314
I1
sS'Hotel'
p3315
I1
sS'Bundles'
p3316
I1
sS'scene'
p3317
I2
sS'adversarial'
p3318
I1
sS'type'
p3319
I1
sS'signify'
p3320
I1
sS'quality'
p3321
I1
sS'reliable'
p3322
I1
sS'ected'
p3323
I2
sS'postseason'
p3324
I1
sS'Boris'
p3325
I1
sS"you're"
p3326
I2
sS'ancient'
p3327
I1
sS'North'
p3328
I11
sS'Adrienne'
p3329
I1
sS'BIOS'
p3330
I1
sS'unknown'
p3331
I2
sS'chased'
p3332
I1
sS'system'
p3333
I5
sS'relations'
p3334
I1
sS'near-total'
p3335
I1
sS'priority'
p3336
I1
sS'their'
p3337
I31
sS'attack'
p3338
I3
sS'Klan'
p3339
I2
sS'sian'
p3340
I1
sS'travelled'
p3341
I1
sS'Iraq'
p3342
I2
sS'Pelosi'
p3343
I1
sS'final'
p3344
I5
sS'painful'
p3345
I1
sS'enforcement'
p3346
I2
sS'stars'
p3347
I3
sS'environmental'
p3348
I1
sS'R'
I3
sS'Ku'
p3349
I1
sS'Democratic'
p3350
I2
sS'elite'
p3351
I1
sS'observed'
p3352
I1
sS'swindled'
p3353
I1
sS'warfare'
p3354
I3
sS'counteract'
p3355
I1
sS'boring'
p3356
I1
sS'Wii'
p3357
I1
sS'depends'
p3358
I2
sS'Liberatio'
p3359
I1
sS'politics'
p3360
I2
sS'compensation'
p3361
I1
sS'rbon'
p3362
I2
sS'loves'
p3363
I2
sS'visited'
p3364
I1
sS'Peter'
p3365
I1
sS'steep'
p3366
I1
sS'Macau'
p3367
I1
sS'manxtremists'
p3368
I2
sS'false'
p3369
I2
sS'recuse'
p3370
I2
sS'lines'
p3371
I1
sS'half'
p3372
I2
sS'liner'
p3373
I1
sS'tonight'
p3374
I1
sS'buy'
p3375
I1
sS'defending'
p3376
I1
sS'have'
p3377
I30
sS'need'
p3378
I3
sS'st'
p3379
I1
sS'linked'
p3380
I1
sS'returnees'
p3381
I1
sS'continents'
p3382
I1
sS'Isabel'
p3383
I1
sS'documents'
p3384
I5
sS"let's"
p3385
I1
sS'com'
p3386
I1
sS'recap'
p3387
I1
sS'After'
p3388
I7
sS'able'
p3389
I2
sS'hangover'
p3390
I1
sS'emerged'
p3391
I1
sS'which'
p3392
I7
sS'Radio'
p3393
I2
sS'Siberia'
p3394
I1
sS'toughest'
p3395
I2
sS'worldwide'
p3396
I2
sS'Builds'
p3397
I2
sS'who'
p3398
I21
sS'3-pointers'
p3399
I1
sS'Titanic'
p3400
I2
sS'retooling'
p3401
I1
sS'Dodgers'
p3402
I1
sS'funding'
p3403
I2
sS'demise'
p3404
I1
sS'cracking'
p3405
I1
sS'prisoner'
p3406
I1
sS'much-anticipated'
p3407
I1
sS'why'
p3408
I2
sS'Reserve'
p3409
I1
sS'cellphone'
p3410
I1
sS'scrambles'
p3411
I1
sS'Neanderthals'
p3412
I2
sS'sweeping'
p3413
I1
sS'Lock'
p3414
I1
sS'gather'
p3415
I1
sS'stronger'
p3416
I1
sS'Pop'
p3417
I1
sS'face'
p3418
I3
sS'High'
p3419
I1
sS'Donald'
p3420
I37
sS'lowered'
p3421
I1
sS'400m'
p3422
I1
sS'pictures'
p3423
I2
sS'occasion'
p3424
I1
sS'Saturday'
p3425
I5
sS'fact'
p3426
I1
sS'Liftoffrumpt'
p3427
I1
sS'recess'
p3428
I2
sS'impish'
p3429
I1
sS'chances'
p3430
I2
sS'text'
p3431
I1
sS'agreed'
p3432
I3
sS'bring'
p3433
I2
sS'Under'
p3434
I1
sS'soldiers'
p3435
I1
sS'fear'
p3436
I1
sS'high-level'
p3437
I1
sS'feat'
p3438
I1
sS'socialist'
p3439
I1
sS'nge'
p3440
I1
sS'taps'
p3441
I1
sS'promote'
p3442
I1
sS'jaw'
p3443
I2
sS'madman'
p3444
I1
sS'should'
p3445
I5
sS'Manic'
p3446
I1
sS'York'
p3447
I2
sS'fuel'
p3448
I2
sS'he'
p3449
I46
sS'local'
p3450
I4
sS'Legend'
p3451
I4
sS'hope'
p3452
I2
sS'photographs'
p3453
I1
sS'abused'
p3454
I3
sS'bonds'
p3455
I1
sS'familiar'
p3456
I2
sS'likable'
p3457
I3
sS'bear'
p3458
I1
sS'Keep'
p3459
I1
sS'Coal'
p3460
I1
sS'124'
p3461
I1
sS'words'
p3462
I1
sS'Cowin'
p3463
I1
sS'Amiibo'
p3464
I3
sS'Beata'
p3465
I1
sS'evolution'
p3466
I1
sS'Because'
p3467
I3
sS'evident'
p3468
I1
sS'course'
p3469
I2
sS'finds'
p3470
I1
sS'married'
p3471
I1
sS'calling'
p3472
I3
sS'crippled'
p3473
I2
sS'extremists'
p3474
I5
sS'stuff'
p3475
I1
sS'Camden'
p3476
I2
sS'she'
p3477
I7
sS'allegation'
p3478
I1
sS'taxed'
p3479
I1
sS'view'
p3480
I2
sS'spotted'
p3481
I1
sS'Afghanistan'
p3482
I2
sS'temporarily'
p3483
I1
sS'King'
p3484
I3
sS'national'
p3485
I5
sS'humans'
p3486
I2
sS'C'
I3
sS'freeze'
p3487
I5
sS'one-frame'
p3488
I1
sS'edition'
p3489
I1
sS'officials'
p3490
I11
sS'faces'
p3491
I1
sS'Pe'
p3492
I1
sS'Be'
p3493
I1
sS'chomped'
p3494
I1
sS'sort-of'
p3495
I1
sS'closer'
p3496
I2
sS'wire'
p3497
I1
sS'Wisconsin'
p3498
I1
sS'attempting'
p3499
I1
sS'nuclear'
p3500
I5
sS'Blackburn'
p3501
I1
sS'genius'
p3502
I1
sS'state'
p3503
I6
sS'Nme'
p3504
I1
sS'closed'
p3505
I2
sS'limit'
p3506
I1
sS'neither'
p3507
I1
sS'Republican'
p3508
I6
sS'9ire'
p3509
I1
sS'Richie'
p3510
I1
sS'PM'
p3511
I1
sS'Body'
p3512
I1
sS'ends'
p3513
I1
sS'explosive'
p3514
I1
sS'opening'
p3515
I2
sS'Sri'
p3516
I1
sS'Rodartenvident'
p3517
I1
sS'agencies'
p3518
I1
sS'indiscriminate'
p3519
I1
sS'Facing'
p3520
I1
sS"Mosul's"
p3521
I1
sS'S'
I35
sS'60m'
p3522
I1
sS'NASCAR'
p3523
I1
sS'key'
p3524
I4
sS'group'
p3525
I5
sS'w'
I1
sS'swift'
p3526
I1
sS'Porte'
p3527
I1
sS'piece'
p3528
I1
sS'career'
p3529
I3
sS'taking'
p3530
I3
sS'\xff\xff\xff\xff\xff\xffltage'
p3531
I1
sS'drug'
p3532
I2
sS'creeping'
p3533
I1
sS'Indies'
p3534
I3
sS'Woods'
p3535
I1
sS'Lawyer'
p3536
I1
sS'caliphate'
p3537
I1
sS'fielder'
p3538
I1
sS'passing'
p3539
I1
sS'superteams'
p3540
I1
sS'jersey'
p3541
I1
sS'withdraws'
p3542
I1
sS'diplomats'
p3543
I1
sS'anti-capitalist'
p3544
I1
sS'migrant'
p3545
I1
sS'Los'
p3546
I3
sS'businessman'
p3547
I1
sS'Music'
p3548
I1
sS'EPA'
p3549
I1
sS'rightly'
p3550
I1
sS'Laviai'
p3551
I1
sS"Nation'"
p3552
I1
sS'withdrawn'
p3553
I1
sS'appeared'
p3554
I2
sS'quit'
p3555
I1
sS'debt'
p3556
I1
sS'Get'
p3557
I1
sS'addition'
p3558
I1
sS"it's"
p3559
I2
sS'holidays'
p3560
I1
sS'cent'
p3561
I2
sS'hardline'
p3562
I1
sS'genetic'
p3563
I2
sS'thieves'
p3564
I1
sS'seasoned'
p3565
I3
sS'treat'
p3566
I1
sS'Active'
p3567
I1
sS'proposal'
p3568
I1
sS'kitchen'
p3569
I1
sS'Bethani'
p3570
I1
sS'Exxon'
p3571
I3
sS'diversity'
p3572
I1
sS'received'
p3573
I1
sS'Puzder'
p3574
I1
sS'kickers'
p3575
I1
sS'Nations'
p3576
I2
sS'Credit'
p3577
I2
sS'finished'
p3578
I1
sS'tense'
p3579
I1
sS'deep'
p3580
I3
sS'World'
p3581
I3
sS'Knights'
p3582
I1
sS'Jamal'
p3583
I1
sS'general'
p3584
I3
sS'present'
p3585
I3
sS'volunteer'
p3586
I1
sS'And'
p3587
I3
sS'homes'
p3588
I1
sS'2016'
p3589
I10
sS'Force'
p3590
I1
sS'Wholesale'
p3591
I1
sS'Warns'
p3592
I1
sS'nd'
p3593
I3
sS'value'
p3594
I1
sS'General'
p3595
I5
sS'will'
p3596
I30
sS'stunning'
p3597
I1
sS'fault'
p3598
I1
sS'Battle'
p3599
I1
sS'Sessionsat'
p3600
I1
sS"America's"
p3601
I2
sS'ripe'
p3602
I1
sS'almost'
p3603
I1
sS'site'
p3604
I1
sS'surface'
p3605
I1
sS'adventures'
p3606
I1
sS'hardware'
p3607
I1
sS'vs'
p3608
I1
sS'aggressiveness'
p3609
I1
sS'claimed'
p3610
I2
sS"Russia's"
p3611
I5
sS'You'
p3612
I1
sS'Beach'
p3613
I1
sS'contention'
p3614
I1
sS'capture'
p3615
I2
sS'Briton'
p3616
I1
sS'shooting'
p3617
I3
sS'On-Demand'
p3618
I1
sS'generic'
p3619
I1
sS'self-declared'
p3620
I1
sS'began'
p3621
I1
sS'administration'
p3622
I5
sS'Colombian'
p3623
I1
sS'member'
p3624
I1
sS'Pouille'
p3625
I1
sS'parts'
p3626
I2
sS'largest'
p3627
I3
sS'Hearthstone'
p3628
I1
sS'party'
p3629
I5
sS'gets'
p3630
I2
sS'Panel'
p3631
I1
sS'injured'
p3632
I1
sS'Fognini'
p3633
I1
sS'Compelling'
p3634
I1
sS'bald'
p3635
I2
sS'MTV'
p3636
I5
sS'effect'
p3637
I1
sS'Nether'
p3638
I1
sS'senior-most'
p3639
I1
sS'student'
p3640
I1
sS'fierce'
p3641
I1
sS'3pendingas'
p3642
I1
sS'steals'
p3643
I1
sS'off'
p3644
I6
sS'i'
I3
sS'Syrian'
p3645
I2
sS'weapon'
p3646
I1
sS'Kushner'
p3647
I1
sS'well'
p3648
I5
sS'fighting'
p3649
I2
sS'Lonzo'
p3650
I4
sS'thought'
p3651
I2
sS'showpiece'
p3652
I1
sS'Rylance'
p3653
I1
sS'experimental'
p3654
I1
sS'Have'
p3655
I2
sS'sets'
p3656
I5
sS'undertaken'
p3657
I1
sS'drawing'
p3658
I1
sS'latest'
p3659
I1
sS'restore'
p3660
I1
sS'newest'
p3661
I2
sS'BB'
p3662
I1
sS'less'
p3663
I4
sS'increasingly'
p3664
I1
sS'percent'
p3665
I1
sS'glut'
p3666
I2
sS'executive'
p3667
I1
sS'detail'
p3668
I1
sS'nicknamed'
p3669
I1
sS'Sunday'
p3670
I16
sS'biologist'
p3671
I1
sS'Alibaba'
p3672
I1
sS'Brigade'
p3673
I1
sS'Gill'
p3674
I1
sS'hazing'
p3675
I1
sS'console'
p3676
I1
sS'field'
p3677
I1
sS'flee'
p3678
I1
sS'Friday'
p3679
I12
sS'killed'
p3680
I2
sS'arrest'
p3681
I3
sS'add'
p3682
I1
sS"Buffett's"
p3683
I1
sS'Diablo'
p3684
I1
sS'citizen'
p3685
I1
sS'billionths'
p3686
I1
sS'loan'
p3687
I1
sS'match'
p3688
I3
sS'tests'
p3689
I1
sS'IHRC'
p3690
I1
sS'government'
p3691
I17
sS'gulped'
p3692
I1
sS'famously'
p3693
I1
sS'protesters'
p3694
I3
sS'prese'
p3695
I1
sS'haul'
p3696
I1
sS'five'
p3697
I2
sS'T'
I3
sS'press'
p3698
I2
sS'loss'
p3699
I1
sS'England'
p3700
I7
sS'like'
p3701
I15
sS'lost'
p3702
I3
sS'vibrant'
p3703
I1
sS'journalism'
p3704
I1
sS'riddle'
p3705
I2
sS'filmed'
p3706
I1
sS'roundly'
p3707
I1
sS'hosts'
p3708
I1
sS'lose'
p3709
I2
sS'become'
p3710
I5
sS'works'
p3711
I3
sS'page'
p3712
I2
sS'Oceanic'
p3713
I1
sS'because'
p3714
I5
sS'towels'
p3715
I3
sS'habitat'
p3716
I1
sS'footage'
p3717
I1
sS'Six'
p3718
I2
sS'DWP'
p3719
I1
sS'Actor'
p3720
I4
sS"There's"
p3721
I1
sS'openness'
p3722
I1
sS'home'
p3723
I4
sS'graphical'
p3724
I1
sS'contested'
p3725
I1
sS'markets'
p3726
I1
sS'ess'
p3727
I1
sS'Singapore'
p3728
I1
sS'literally'
p3729
I2
sS'avoid'
p3730
I1
sS'People'
p3731
I1
sS'demonstrators'
p3732
I1
sS'shelter'
p3733
I1
sS'rewarding'
p3734
I1
sS'does'
p3735
I2
sS'Connie'
p3736
I1
sS'Those'
p3737
I2
sS'leader'
p3738
I2
sS'Bryant'
p3739
I1
sS'regain'
p3740
I2
sS'Eden'
p3741
I1
sS'evacuation'
p3742
I1
sS'Fernando'
p3743
I1
sS'Mannarino'
p3744
I1
sS'pressure'
p3745
I2
sS'Planned'
p3746
I1
sS'Kindle'
p3747
I1
sS'r'
I2
sS'Maul'
p3748
I1
sS'after'
p3749
I41
sS'panel'
p3750
I2
sS'gained'
p3751
I2
sS'about'
p3752
I26
sS'rare'
p3753
I2
sS'engines'
p3754
I3
sS'litigating'
p3755
I1
sS'Sitting'
p3756
I1
sS'US'
p3757
I10
sS'compatible'
p3758
I1
sS'Zero'
p3759
I2
sS'UN'
p3760
I1
sS'Americans'
p3761
I1
sS'ten'
p3762
I1
sS'UK'
p3763
I1
sS'Japan'
p3764
I1
sS'nds'
p3765
I1
sS'documentary'
p3766
I1
sS'software'
p3767
I3
sS'centrist'
p3768
I1
sS'own'
p3769
I3
sS'Rizzo'
p3770
I1
sS'previously'
p3771
I1
sS'Southern'
p3772
I2
sS'Act'
p3773
I1
sS'Two'
p3774
I2
sS'referendum'
p3775
I1
sS'Iraqi'
p3776
I9
sS'guard'
p3777
I2
sS'tiny'
p3778
I2
sS'suitors'
p3779
I1
sS'Craig'
p3780
I1
sS'utility'
p3781
I1
sS'Ball'
p3782
I3
sS'accused'
p3783
I5
sS'Recruits'
p3784
I1
sS'suburbs'
p3785
I1
sS'prospects'
p3786
I1
sS'housing'
p3787
I1
sS'apps'
p3788
I1
sS'spiral'
p3789
I1
sS'Rosensteinst'
p3790
I1
sS'Vegas'
p3791
I1
sS'six-year-old'
p3792
I1
sS'Chile'
p3793
I1
sS'biggest'
p3794
I6
sS'E-reader'
p3795
I1
sS'double-down'
p3796
I1
sS'function'
p3797
I1
sS'dispensaries'
p3798
I1
sS'ef'
p3799
I1
sS'jury'
p3800
I1
sS'Dep'
p3801
I1
sS'sequel'
p3802
I1
sS'but'
p3803
I30
sS'hi'
p3804
I1
sS'brashness'
p3805
I2
sS'Posted'
p3806
I1
sS'courts'
p3807
I1
sS'Dea'
p3808
I1
sS'villains'
p3809
I1
sS'highest'
p3810
I1
sS'Chelsea'
p3811
I1
sS'eat'
p3812
I1
sS'partially'
p3813
I1
sS'count'
p3814
I2
sS'made'
p3815
I5
sS'places'
p3816
I2
sS'official'
p3817
I4
sS'annoying'
p3818
I1
sS'record'
p3819
I1
sS'below'
p3820
I2
sS'stories'
p3821
I3
sS'ruling'
p3822
I1
sS'problem'
p3823
I3
sS'Care'
p3824
I1
sS'minutes'
p3825
I1
sS'display'
p3826
I2
sS'unfolding'
p3827
I1
sS'Realm'
p3828
I1
sS'Berkshire'
p3829
I1
sS'Obama-era'
p3830
I1
sS'sexually'
p3831
I1
sS'pie'
p3832
I1
sS'gnawing'
p3833
I1
sS'beats'
p3834
I1
sS'ino'
p3835
I1
sS'Leopoldo'
p3836
I1
sS'Electronics'
p3837
I1
sS'Darwin'
p3838
I1
sS'80'
p3839
I2
sS'Wimbledon'
p3840
I5
sS'diplomat'
p3841
I1
sS'performed'
p3842
I1
sS'Sessions'
p3843
I8
sS'fascinating'
p3844
I1
sS'deadly'
p3845
I1
sS'44'
p3846
I3
sS'eastern'
p3847
I1
sS'boot'
p3848
I1
sS'43'
p3849
I1
sS'Delivery'
p3850
I1
sS'Islamic'
p3851
I11
sS'other'
p3852
I15
sS'billionaires'
p3853
I1
sS'details'
p3854
I2
sS'mass'
p3855
I1
sS'Pietersen'
p3856
I2
sS'Carolina'
p3857
I2
sS'album'
p3858
I1
sS'February'
p3859
I1
sS'star'
p3860
I1
sS'Secrets'
p3861
I2
sS'class'
p3862
I1
sS'behavioral'
p3863
I1
sS'In-depth'
p3864
I1
sS'U'
I36
sS'Morgan'
p3865
I1
sS'Every'
p3866
I2
sS'filmmaker'
p3867
I1
sS'South'
p3868
I8
sS'breaks'
p3869
I3
sS'sentiment'
p3870
I1
sS'using'
p3871
I1
sS'ranks'
p3872
I1
sS'space'
p3873
I1
sS'lasted'
p3874
I3
sS'rule'
p3875
I1
sS'Lusk'
p3876
I1
sS'portion'
p3877
I1
sS'races'
p3878
I2
sS'al-Assad'
p3879
I1
sS'diagnosis'
p3880
I1
sS'Season'
p3881
I1
sS'rural'
p3882
I1
sS'sakalavae'
p3883
I1
ssS'_mapping'
p3884
(dp3885
g18
I305
sg19
I382
sg20
I3582
sg21
I1355
sg22
I3522
sg23
I878
sg24
I2895
sg25
I3790
sg26
I2330
sg27
I430
sg28
I3087
sg29
I1832
sg30
I2558
sg31
I2564
sg32
I1244
sg33
I445
sg34
I1215
sg35
I3637
sg36
I3869
sg37
I404
sg38
I184
sg39
I548
sg40
I1291
sg41
I1935
sg42
I376
sg43
I2253
sg44
I1843
sg45
I1904
sg46
I786
sg47
I1068
sg48
I2952
sg49
I2060
sg50
I1382
sg51
I1432
sg52
I3679
sg53
I3601
sg54
I2625
sg55
I926
sg56
I3502
sg57
I1968
sg58
I1141
sg59
I1414
sg60
I1544
sg61
I2354
sg62
I478
sg63
I2606
sg64
I298
sg65
I789
sg66
I1678
sg67
I2428
sg68
I794
sg69
I2101
sg70
I2995
sg71
I2705
sg72
I1203
sg73
I174
sg74
I1245
sg75
I3736
sg76
I3376
sg77
I1328
sg78
I3471
sg79
I1059
sg80
I452
sg81
I3052
sg82
I1685
sg83
I2886
sg84
I1365
sg85
I787
sg86
I3481
sg87
I1740
sg88
I3053
sg89
I3002
sg90
I2845
sg91
I3460
sg92
I565
sg93
I63
sg94
I3646
sg95
I3396
sg96
I1250
sg97
I489
sg98
I525
sg99
I2034
sg100
I3501
sg101
I3417
sg102
I3781
sg103
I3543
sg104
I2228
sg105
I2045
sg106
I699
sg107
I3249
sg108
I1310
sg109
I2958
sg110
I3146
sg111
I2257
sg112
I201
sg113
I3678
sg114
I2974
sg115
I81
sg116
I1500
sg117
I214
sg118
I3192
sg119
I2927
sg120
I833
sg121
I189
sg122
I3179
sg123
I681
sg124
I3020
sg125
I454
sg126
I3023
sg127
I1631
sg128
I230
sg129
I1083
sg130
I2195
sg131
I1032
sg132
I3540
sg133
I2310
sg134
I1670
sg135
I3128
sg136
I3520
sg137
I1919
sg138
I1191
sg139
I3692
sg140
I3799
sg141
I591
sg142
I134
sg143
I1865
sg144
I2998
sg145
I3519
sg146
I39
sg147
I19
sg148
I2365
sg149
I3785
sg150
I3794
sg151
I3726
sg152
I2165
sg153
I2124
sg154
I3393
sg155
I369
sg156
I2434
sg157
I836
sg158
I2633
sg159
I3251
sg160
I2285
sg161
I2687
sg162
I3177
sg163
I3677
sg164
I557
sg165
I3165
sg166
I2207
sg167
I758
sg168
I223
sg169
I1854
sg170
I350
sg171
I2094
sg172
I505
sg173
I2201
sg174
I3508
sg175
I2954
sg176
I1747
sg177
I2527
sg178
I1465
sg179
I1607
sg180
I705
sg181
I2184
sg182
I3464
sg183
I2697
sg184
I2762
sg185
I2465
sg186
I2671
sg187
I2980
sg188
I2723
sg189
I388
sg190
I2766
sg191
I1448
sg192
I3548
sg193
I1907
sg194
I732
sg195
I3845
sg196
I1474
sg197
I1983
sg198
I474
sg199
I1948
sg200
I3320
sg201
I840
sg202
I2315
sg203
I2887
sg204
I2726
sg205
I2778
sg206
I2872
sg207
I78
sg208
I1023
sg209
I66
sg210
I3150
sg211
I3155
sg212
I1728
sg213
I3116
sg214
I1080
sg215
I3173
sg216
I3156
sg217
I1117
sg218
I3510
sg219
I2335
sg220
I440
sg221
I3034
sg222
I2869
sg223
I299
sg224
I3028
sg225
I3097
sg226
I485
sg227
I3355
sg228
I2128
sg229
I1124
sg230
I3353
sg231
I1402
sg232
I3603
sg233
I1517
sg234
I1371
sg235
I3296
sg236
I2082
sg237
I1435
sg238
I529
sg239
I2605
sg240
I1791
sg241
I3305
sg242
I1314
sg243
I3208
sg244
I1302
sg245
I1188
sg246
I2813
sg247
I327
sg248
I3057
sg249
I943
sg250
I3201
sg251
I164
sg252
I1556
sg253
I3410
sg254
I3681
sg255
I133
sg256
I711
sg257
I1053
sg258
I972
sg259
I2947
sg260
I518
sg261
I2300
sg262
I1341
sg263
I3849
sg264
I1565
sg265
I1177
sg266
I2643
sg267
I1553
sg268
I1620
sg269
I36
sg270
I3688
sg271
I1383
sg272
I1034
sg273
I1006
sg274
I458
sg275
I1561
sg276
I1796
sg277
I3834
sg278
I3892
sg279
I1327
sg280
I2368
sg281
I2104
sg282
I289
sg283
I955
sg284
I3046
sg285
I1603
sg286
I2649
sg287
I3036
sg288
I2188
sg289
I2158
sg290
I366
sg291
I2843
sg292
I864
sg293
I932
sg294
I2172
sg295
I3874
sg296
I1207
sg297
I1781
sg298
I1737
sg299
I3448
sg300
I3295
sg301
I1217
sg302
I2296
sg303
I3558
sg304
I315
sg305
I1316
sg306
I2284
sg307
I3077
sg308
I866
sg309
I939
sg310
I3847
sg311
I1232
sg312
I3760
sg313
I775
sg314
I3670
sg315
I2905
sg316
I1632
sg317
I3789
sg318
I2827
sg319
I74
sg320
I1252
sg321
I2025
sg322
I1103
sg323
I1350
sg324
I460
sg325
I2824
sg326
I696
sg327
I348
sg328
I511
sg329
I1135
sg330
I288
sg331
I1127
sg332
I946
sg333
I3571
sg334
I1908
sg335
I1636
sg336
I2205
sg337
I2983
sg338
I1770
sg339
I920
sg340
I2341
sg341
I2030
sg342
I589
sg343
I604
sg344
I1687
sg345
I790
sg346
I3339
sg347
I2867
sg348
I3814
sg349
I3419
sg350
I1855
sg351
I1701
sg352
I2572
sg353
I1982
sg354
I652
sg355
I221
sg356
I3223
sg357
I2146
sg358
I271
sg359
I2452
sg360
I2232
sg361
I1370
sg362
I3074
sg363
I432
sg364
I877
sg365
I1000
sg366
I730
sg367
I2448
sg368
I2259
sg369
I2518
sg370
I750
sg371
I2662
sg372
I182
sg373
I3638
sg374
I1294
sg375
I1491
sg376
I338
sg377
I3266
sg378
I1883
sS'W'
I1823
sg379
I514
sg380
I673
sg381
I2844
sg382
I2168
sg383
I375
sg384
I1911
sg385
I1354
sg386
I3142
sg387
I2665
sg388
I2912
sg389
I211
sg390
I677
sg391
I53
sg392
I2482
sg393
I1180
sg394
I2357
sg395
I282
sg396
I3440
sg397
I987
sg398
I2810
sg399
I3407
sg400
I2881
sg401
I2109
sg402
I2749
sg403
I1759
sg404
I2653
sg405
I3875
sg406
I2326
sg407
I1036
sg408
I2436
sg409
I803
sg12
I0
sg410
I2826
sg411
I2942
sg412
I3215
sg413
I626
sg414
I527
sg415
I2425
sg416
I521
sg417
I257
sg418
I3451
sg419
I3872
sg420
I1724
sg421
I210
sg422
I2070
sg423
I2681
sg424
I2555
sg425
I1255
sg426
I3447
sg427
I3890
sg428
I339
sg429
I2499
sg430
I2711
sg431
I2301
sg432
I296
sg433
I3759
sg434
I3667
sg435
I2196
sg436
I1221
sg437
I1532
sg438
I3817
sg439
I2968
sg440
I3731
sg441
I3750
sg442
I956
sg443
I1296
sg444
I1634
sg445
I2966
sg446
I1735
sg447
I612
sg448
I1739
sg449
I266
sg450
I3902
sg451
I1379
sg452
I2498
sg453
I399
sg454
I1449
sg455
I2388
sg456
I2048
sg457
I3559
sg458
I204
sg459
I2901
sg460
I2216
sg461
I1366
sg462
I2789
sg463
I1248
sg464
I3538
sg465
I2781
sg466
I2227
sg467
I875
sg468
I2570
sg469
I1736
sg470
I2177
sg471
I960
sg472
I2563
sg473
I3531
sg474
I3386
sg475
I1973
sS'-'
I642
sg476
I1516
sg477
I2198
sg478
I1795
sg479
I2270
sg480
I279
sg481
I286
sg482
I2804
sg483
I3366
sg484
I1622
sg485
I1611
sg486
I3854
sg487
I2143
sg488
I1462
sg489
I1014
sg490
I3642
sg491
I3741
sg492
I2318
sg493
I2792
sg494
I2819
sg495
I964
sg496
I602
sg497
I1766
sg498
I1902
sg499
I3066
sg500
I1599
sg501
I2659
sg502
I1071
sg503
I2130
sg504
I3500
sg505
I492
sg506
I934
sg507
I2340
sg508
I2160
sg509
I2588
sg510
I392
sg511
I2176
sg512
I672
sg513
I3219
sg514
I1530
sg515
I2278
sg516
I1819
sg517
I3145
sg518
I2550
sg519
I3862
sg520
I1110
sg521
I2677
sg522
I2242
sg523
I2444
sg524
I1046
sg525
I3690
sg526
I410
sg527
I3027
sg528
I2911
sg529
I629
sg530
I3724
sg531
I1278
sg532
I94
sg533
I3084
sg534
I3467
sg535
I3211
sg536
I1585
sg537
I1837
sg538
I3300
sg539
I981
sg540
I2821
sg541
I929
sg542
I951
sg543
I1711
sg544
I3496
sg545
I2320
sg546
I3242
sg547
I976
sg548
I1443
sg549
I1162
sg550
I1388
sg551
I429
sg552
I1499
sg553
I2957
sg554
I3210
sg555
I2994
sg556
I3113
sg557
I2369
sg558
I1916
sg559
I3270
sg560
I1673
sg561
I1153
sg562
I491
sg563
I2267
sg564
I1809
sg565
I2497
sg566
I2940
sg567
I1266
sg568
I689
sg569
I103
sg570
I2511
sg571
I3425
sg572
I1699
sg573
I1713
sg574
I3567
sg575
I3798
sg576
I2754
sg577
I1591
sg578
I3493
sg579
I3294
sg580
I3342
sg581
I2349
sg582
I2379
sg583
I183
sg584
I2670
sg585
I1056
sg586
I1140
sg587
I2125
sg588
I1163
sg589
I2470
sg590
I3015
sg591
I3101
sg592
I1478
sg593
I1256
sg594
I222
sg595
I3449
sg596
I3562
sg597
I2794
sg598
I2780
sg599
I140
sg600
I3560
sg601
I1226
sg602
I1168
sg603
I3592
sg604
I2370
sg605
I3110
sg606
I2122
sg607
I1831
sg608
I30
sg609
I767
sg610
I1082
sg611
I2782
sg612
I3623
sg613
I1582
sg614
I443
sg615
I2486
sg616
I2961
sg617
I2496
sg618
I1578
sg619
I1605
sg620
I679
sg621
I3556
sg622
I1922
sg623
I3450
sg624
I738
sg625
I986
sg626
I963
sg627
I58
sg628
I1130
sg629
I3620
sg630
I378
sg631
I2209
sg632
I1836
sg633
I207
sg634
I484
sg635
I927
sg636
I1820
sg637
I1249
sg638
I2894
sg639
I1456
sg640
I193
sg641
I231
sg642
I3544
sg643
I2226
sg644
I390
sg645
I2888
sg646
I735
sg647
I46
sg648
I1020
sg649
I2362
sg650
I3446
sg651
I1247
sg652
I3352
sg653
I2707
sg654
I1665
sg655
I3103
sg656
I778
sg657
I3494
sg658
I332
sg659
I2059
sg660
I2150
sg661
I3647
sg662
I674
sg663
I760
sg664
I2244
sg665
I1667
sg666
I1238
sg667
I1497
sg668
I1579
sg669
I395
sg670
I3218
sg671
I349
sg672
I6
sg673
I1623
sg674
I374
sg675
I325
sg676
I3081
sg677
I1259
sg678
I3049
sg679
I1640
sg680
I1228
sg681
I2139
sg682
I621
sg683
I2856
sg684
I2859
sg685
I860
sg686
I1508
sg687
I1741
sg688
I820
sg689
I2173
sg690
I3263
sg691
I881
sg692
I262
sg693
I603
sg694
I2997
sg695
I1716
sg696
I3512
sg697
I147
sg698
I247
sg699
I3717
sg700
I2068
sg701
I3082
sg702
I880
sg703
I3428
sg704
I114
sg705
I1129
sg706
I3627
sg707
I3739
sg708
I1275
sg709
I34
sg710
I1574
sg711
I2426
sg712
I771
sg713
I135
sg714
I2074
sg715
I41
sg716
I1329
sg717
I3855
sg718
I3234
sg719
I1179
sg720
I2916
sg721
I3005
sg722
I15
sg723
I1546
sg724
I2939
sg725
I77
sg726
I3125
sg727
I1589
sg728
I40
sg729
I938
sg730
I1149
sg731
I3385
sg732
I2560
sg733
I2399
sg734
I43
sg735
I2703
sg736
I1641
sg737
I1073
sg738
I2551
sg739
I146
sg740
I1225
sg741
I251
sg742
I2925
sg743
I1764
sg744
I3261
sg745
I3644
sg746
I3434
sg747
I3043
sg748
I844
sg749
I1282
sg750
I649
sg751
I701
sg752
I504
sg753
I1434
sg754
I3733
sg755
I3708
sg756
I118
sg757
I3734
sg758
I1725
sg759
I2043
sg760
I1707
sg761
I970
sg762
I1712
sg763
I1486
sg764
I2928
sg765
I2364
sg766
I2785
sg767
I25
sg768
I21
sg769
I1864
sg770
I166
sg771
I3707
sg772
I1657
sg773
I923
sg774
I1847
sg775
I3534
sg776
I2913
sg777
I1378
sg778
I2688
sg779
I849
sg780
I3439
sg781
I1638
sg782
I3550
sg783
I1064
sg784
I801
sg785
I2663
sg786
I2617
sg787
I1415
sg788
I354
sg789
I3022
sg790
I761
sg791
I609
sg792
I194
sg793
I743
sg794
I88
sg795
I1859
sg796
I2657
sg797
I2884
sg798
I1587
sg799
I80
sg800
I949
sg801
I1289
sg802
I1625
sg803
I2166
sg804
I2303
sg805
I1802
sg806
I1150
sg807
I1483
sg808
I3490
sg809
I1139
sg810
I707
sg811
I717
sg812
I344
sg813
I269
sg814
I2314
sg815
I233
sg816
I3216
sg817
I1606
sg818
I2970
sg819
I1284
sg820
I977
sg821
I3240
sg822
I3518
sg823
I556
sg824
I2106
sg825
I3746
sg826
I258
sg827
I1214
sg828
I3492
sg829
I167
sg830
I1270
sg831
I675
sg832
I264
sg833
I1583
sg834
I1146
sg835
I3331
sg836
I1332
sg837
I3751
sg838
I1182
sg839
I896
sg840
I2538
sg841
I605
sg842
I1389
sg843
I585
sg844
I2224
sg845
I2656
sg846
I252
sg847
I1609
sg848
I3426
sg849
I1849
sg850
I2773
sg851
I3805
sg852
I816
sg853
I1409
sg854
I1360
sg855
I1662
sg856
I3787
sg857
I1254
sg858
I2398
sg859
I3388
sg860
I2669
sg861
I415
sg862
I1765
sg863
I2741
sg864
I3085
sg865
I3257
sg866
I3825
sg867
I1772
sg868
I3264
sg869
I224
sg870
I347
sg871
I2858
sg872
I3280
sg873
I295
sg874
I3427
sg875
I3370
sS'o'
I2154
sg876
I2333
sg877
I226
sg878
I3706
sg879
I3244
sg880
I2485
sg881
I3037
sg882
I1800
sg883
I1954
sg884
I3338
sg885
I1454
sg886
I1566
sg887
I982
sg888
I1763
sg889
I2147
sg890
I2252
sg891
I84
sg892
I419
sg893
I965
sg894
I3557
sg895
I1439
sg896
I3757
sg897
I3315
sg898
I662
sg899
I263
sg900
I2683
sg901
I957
sg902
I1165
sg903
I3056
sg904
I2753
sg905
I27
sg906
I2321
sg907
I89
sg908
I33
sg909
I1100
sg910
I3214
sg911
I3169
sg912
I500
sg913
I1633
sg914
I592
sg915
I2822
sg916
I2937
sg917
I1012
sg918
I3304
sg919
I3018
sg920
I2035
sg921
I2311
sg922
I1322
sg923
I936
sg924
I3
sg925
I1241
sg926
I3626
sg927
I1797
sg928
I129
sg929
I1381
sg930
I1273
sg931
I3401
sg932
I2016
sg933
I799
sg934
I3377
sg935
I2190
sg936
I937
sg937
I1220
sg938
I2809
sg939
I2412
sg940
I508
sg941
I2243
sg942
I232
sg943
I1751
sg944
I904
sg945
I2680
sg946
I2561
sg947
I1194
sg948
I769
sg949
I2208
sg950
I3319
sg951
I1463
sg952
I2924
sg953
I1364
sg954
I1826
sg955
I322
sg956
I173
sg957
I615
sg958
I1862
sg959
I3226
sg960
I3473
sg961
I1977
sg962
I3885
sg963
I2261
sg964
I202
sg965
I2724
sg966
I1730
sg967
I256
sg968
I594
sg969
I1309
sg970
I2471
sg971
I2512
sg972
I865
sg973
I2356
sg974
I667
sg975
I2811
sg976
I1762
sg977
I3821
sg978
I2510
sg979
I902
sg980
I1822
sg981
I2063
sg982
I275
sg983
I261
sg984
I1258
sg985
I3454
sg986
I3762
sg987
I798
sg988
I1079
sg989
I250
sg990
I2926
sg991
I3132
sg992
I713
sg993
I554
sg994
I3166
sg995
I749
sg996
I1779
sg997
I3453
sg998
I1313
sg999
I792
sg1000
I3796
sg1001
I3006
sg1002
I597
sg1003
I2090
sg1004
I740
sg1005
I2820
sg1006
I3067
sg1007
I3792
sg1008
I3358
sg1009
I341
sg1010
I729
sg1011
I1573
sg1012
I3702
sg1013
I3174
sg1014
I598
sg1015
I3413
sg1016
I780
sg1017
I1597
sg1018
I2709
sg1019
I1394
sg1020
I762
sg1021
I898
sg1022
I3766
sg1023
I3753
sg1024
I2200
sg1025
I703
sg1026
I1237
sg1027
I563
sg1028
I3716
sg1029
I3133
sg1030
I2740
sg1031
I2007
sg1032
I481
sg1033
I1094
sg1034
I2406
sg1035
I2050
sg1036
I2317
sg1037
I47
sg1038
I3054
sg1039
I2020
sg1040
I2039
sg1041
I631
sg1042
I149
sg1043
I2417
sg1044
I2743
sg1045
I3089
sg1046
I560
sg1047
I2033
sg1048
I1397
sg1049
I639
sg1050
I192
sg1051
I436
sS'p'
I1285
sg1052
I3532
sg1053
I463
sg1054
I868
sg1055
I874
sg1056
I473
sg1057
I1884
sg1058
I1717
sg1059
I3509
sg1060
I69
sg1061
I1134
sg1062
I281
sg1063
I2057
sg1064
I1650
sg1065
I2668
sg1066
I3421
sg1067
I555
sg1068
I3786
sg1069
I2044
sg1070
I2963
sg1071
I2378
sg1072
I3420
sg1073
I2787
sg1074
I1431
sg1075
I3563
sg1076
I3302
sg1077
I582
sg1078
I1660
sg1079
I171
sg1080
I516
sg1081
I651
sg1082
I2865
sg1083
I1058
sg1084
I854
sg1085
I1427
sg1086
I1437
sg1087
I3441
sg1088
I1234
sg1089
I165
sg1090
I884
sg1091
I3802
sg1092
I3833
sg1093
I800
sg1094
I402
sg1095
I1962
sg1096
I3769
sg1097
I910
sg1098
I3774
sg1099
I2328
sg1100
I2799
sg1101
I3273
sg1102
I476
sg1103
I3416
sg1104
I119
sg1105
I2483
sg1106
I3170
sg1107
I1629
sg1108
I2087
sg1109
I702
sg1110
I1541
sg1111
I2404
sg1112
I2568
sg1113
I3436
sg1114
I3282
sg1115
I1231
sg1116
I1480
sg1117
I1932
sg1118
I1841
sg1119
I1420
sg1120
I3593
sg1121
I3422
sg1122
I1118
sg1123
I428
sg1124
I2415
sg1125
I988
sg1126
I488
sg1127
I3438
sg1128
I1460
sg1129
I3712
sg1130
I2381
sg1131
I678
sg1132
I513
sg1133
I921
sg1134
I2175
sg1135
I3856
sg1136
I2660
sg1137
I2771
sg1138
I1704
sg1139
I650
sg1140
I3262
sg1141
I595
sg1142
I2402
sg1143
I1877
sg1144
I680
sg1145
I137
sg1146
I383
sg1147
I2701
sg1148
I522
sg1149
I2861
sg1150
I408
sg1151
I3851
sg1152
I1682
sg1153
I2389
sg1154
I3238
sg1155
I3394
sg1156
I2047
sg1157
I3204
sg1158
I3596
sg1159
I3859
sg1160
I3072
sg1161
I888
sg1162
I2803
sg1163
I1881
sg1164
I1331
sg1165
I3203
sg1166
I622
sg1167
I1065
sg1168
I306
sg1169
I1487
sg1170
I3745
sg1171
I2798
sg1172
I1834
sg1173
I3813
sg1174
I3656
sg1175
I87
sg1176
I859
sg1177
I3287
sg1178
I983
sg1179
I765
sg1180
I564
sg1181
I1484
sg1182
I2394
sg1183
I2231
sg1184
I311
sg1185
I818
sg1186
I3732
sg1187
I903
sg1188
I3617
sg1189
I2990
sg1190
I1131
sg1191
I2818
sg1192
I636
sg1193
I3491
sg1194
I2358
sg1195
I396
sg1196
I1866
sg1197
I2218
sg1198
I933
sg1199
I2583
sg1200
I1417
sg1201
I3715
sg1202
I1272
sg1203
I242
sg1204
I1157
sg1205
I2097
sS'1'
I2808
sg1206
I1339
sg1207
I3640
sg1208
I709
sg1209
I3705
sg1210
I1461
sg1211
I553
sg1212
I3552
sg1213
I1958
sg1214
I911
sg1215
I1758
sg1216
I1481
sg1217
I1510
sg1218
I3686
sg1219
I2414
sg1220
I2647
sg1221
I1018
sg1222
I3514
sg1223
I64
sg1224
I409
sg1225
I2422
sg1226
I75
sg1227
I57
sg1228
I359
sg1229
I3351
sg1230
I3314
sg1231
I3643
sg1232
I1581
sg1233
I3898
sg1234
I695
sg1235
I978
sg1236
I3873
sg1237
I3713
sg1238
I571
sg1239
I3653
sg1240
I3894
sg1241
I739
sg1242
I1989
sg1243
I157
sg1244
I523
sg1245
I2408
sg1246
I3639
sg1247
I54
sg1248
I1408
sg1249
I1334
sg1250
I1496
sg1251
I3063
sg1252
I856
sg1253
I2054
sg1254
I614
sg1255
I3589
sg1256
I2136
sg1257
I2273
sg1258
I967
sg1259
I1097
sg1260
I894
sg1261
I3109
sg1262
I3883
sg1263
I1470
sg1264
I1088
sg1265
I2283
sg1266
I1469
sg1267
I1347
sg1268
I1830
sg1269
I1015
sg1270
I471
sg1271
I2514
sg1272
I627
sg1273
I387
sg1274
I549
sg1275
I1610
sg1276
I312
sg1277
I1774
sg1278
I1213
sg1279
I3837
sg1280
I234
sg1281
I225
sg1282
I2620
sg1283
I1734
sg1284
I999
sg1285
I930
sg1286
I3888
sg1287
I2199
sg1288
I1391
sg1289
I1069
sg1290
I3383
sg1291
I2334
sg1292
I108
sg1293
I3680
sg1294
I2004
sg1295
I3835
sg1296
I2718
sg1297
I3810
sS'A'
I124
sg1298
I2344
sg1299
I2544
sg1300
I2959
sg1301
I1210
sg1302
I3576
sg1303
I2304
sg1304
I168
sg1305
I561
sg1306
I1406
sg1307
I1028
sg1308
I2067
sg1309
I1442
sg1310
I776
sg1311
I2297
sg1312
I1269
sg1313
I3738
sg1314
I217
sg1315
I2265
sg1316
I1783
sg1317
I850
sg1318
I2967
sg1319
I755
sg1320
I1106
sg1321
I1714
sg1322
I1648
sg1323
I3286
sg1324
I887
sg1325
I1271
sg1326
I648
sg1327
I2534
sg1328
I853
sg1329
I1590
sg1330
I442
sg1331
I1181
sg1332
I3547
sg1333
I1033
sg1334
I3779
sg1335
I2716
sg1336
I1047
sg1337
I3122
sg1338
I1212
sg1339
I2508
sg1340
I2525
sg1341
I3768
sg1342
I3374
sg1343
I330
sg1344
I2391
sg1345
I2839
sg1346
I2815
sg1347
I1845
sg1348
I2922
sg1349
I1769
sg1350
I1024
sg1351
I2814
sg1352
I2533
sg1353
I2848
sg1354
I3503
sg1355
I2515
sg1356
I2250
sg1357
I3360
sg1358
I2121
sg1359
I1991
sg1360
I61
sg1361
I1104
sg1362
I381
sg1363
I1374
sg1364
I2132
sg1365
I3299
sg1366
I2276
sg1367
I620
sg1368
I1458
sg1369
I1075
sg1370
I917
sg1371
I2932
sg1372
I2816
sg1373
I90
sg1374
I199
sg1375
I1520
sg1376
I1324
sg1377
I772
sg1378
I1042
sg1379
I302
sg1380
I892
sg1381
I3012
sg1382
I2058
sg1383
I3137
sg1384
I3838
sg1385
I3151
sg1386
I1896
sS'2'
I2342
sg1387
I3372
sg1388
I1627
sg1389
I2064
sg1390
I3389
sg1391
I1398
sg1392
I1224
sg1393
I490
sg1394
I248
sg1395
I1121
sg1396
I244
sg1397
I13
sg1398
I2715
sg1399
I1754
sg1400
I802
sg1401
I1872
sg1402
I1495
sg1403
I1126
sg1404
I1693
sg1405
I3704
sg1406
I2462
sg1407
I2076
sg1408
I2866
sg1409
I51
sg1410
I3239
sg1411
I2675
sg1412
I97
sg1413
I872
sg1414
I1144
sg1415
I441
sg1416
I2295
sg1417
I2194
sg1418
I1956
sg1419
I2503
sg1420
I1925
sg1421
I871
sg1422
I235
sg1423
I3437
sg1424
I3573
sg1425
I110
sg1426
I1511
sg1427
I2689
sg1428
I2838
sg1429
I2868
sg1430
I570
sg1431
I744
sg1432
I2024
sg1433
I995
sg1434
I236
sg1435
I1540
sg1436
I1780
sg1437
I3891
sg1438
I804
sg1439
I3343
sg1440
I3121
sg1441
I3256
sg1442
I1965
sg1443
I3080
sg1444
I142
sg1445
I2229
sg1446
I59
sg1447
I176
sg1448
I2873
sg1449
I942
sg1450
I1489
sg1451
I2056
sg1452
I2751
sg1453
I2066
sg1454
I700
sg1455
I2316
sg1456
I845
sg1457
I3062
sg1458
I1949
sg1459
I3405
sg1460
I931
sg1461
I2309
sg1462
I1120
sg1463
I308
sg1464
I3788
sg1465
I2862
sg1466
I1323
sg1467
I2735
sg1468
I143
sg1469
I791
sg1470
I1411
sg1471
I2383
sg1472
I2339
sg1473
I2142
sg1474
I3014
sg1475
I2023
sg1476
I2608
sg1477
I829
sg1478
I3585
sg1479
I3068
sg1480
I2084
sg1481
I3285
sg1482
I1812
sg1483
I2036
sg1484
I2727
sg1485
I3602
sg1486
I1335
sg1487
I1913
sg1488
I3591
sg1489
I1592
sg1490
I2742
sg1491
I1206
sg1492
I1030
sg1493
I774
sg1494
I2271
sg1495
I3606
sg1496
I1550
sg1497
I1026
sg1498
I2850
sg1499
I3310
sg1500
I2088
sg1501
I1509
sg1502
I215
sg1503
I3444
sg1504
I3115
sg1505
I1952
sg1506
I113
sg1507
I3699
sg1508
I3123
sg1509
I1050
sg1510
I2898
sg1511
I2587
sg1512
I1502
sg1513
I2557
sg1514
I2719
sg1515
I1060
sg1516
I3140
sg1517
I2626
sg1518
I2114
sg1519
I2078
sS'3'
I1921
sg1520
I2600
sg1521
I26
sg1522
I1136
sg1523
I497
sg1524
I1950
sg1525
I3631
sg1526
I1349
sg1527
I2692
sg1528
I2982
sg1529
I2631
sg1530
I3505
sg1531
I2157
sg1532
I2263
sg1533
I2800
sg1534
I953
sg1535
I1705
sg1536
I2573
sg1537
I293
sg1538
I2187
sg1539
I3714
sg1540
I1683
sg1541
I764
sg1542
I1017
sg1543
I2610
sg1544
I3737
sg1545
I3795
sg1546
I2191
sg1547
I2219
sg1548
I2700
sg1549
I2193
sg1550
I1885
sg1551
I2430
sg1552
I3868
sg1553
I3755
sg1554
I3662
sg1555
I2545
sg1556
I1512
sg1557
I2904
sg1558
I343
sg1559
I181
sg1560
I2343
sg1561
I2576
sg1562
I3090
sg1563
I1301
sg1564
I2953
sg1565
I3533
sg1566
I2779
sg1567
I334
sg1568
I1923
sg1569
I3384
sg1570
I3141
sg1571
I3102
sg1572
I3161
sg1573
I3462
sg1574
I116
sg1575
I1057
sg1576
I858
sg1577
I3475
sg1578
I2579
sg1579
I1803
sg1580
I2298
sg1581
I2133
sg1582
I1209
sg1583
I494
sg1584
I2028
sg1585
I1745
sg1586
I2791
sg1587
I2969
sg1588
I1628
sg1589
I1482
sg1590
I243
sg1591
I2413
sg1592
I1321
sg1593
I3091
sg1594
I2000
sg1595
I3804
sg1596
I1572
sg1597
I2841
sg1598
I2517
sg1599
I2981
sg1600
I2938
sg1601
I1055
sg1602
I1116
sg1603
I2581
sg1604
I682
sg1605
I1359
sg1606
I1319
sg1607
I1785
sg1608
I1416
sg1609
I785
sg1610
I3284
sg1611
I1700
sg1612
I797
sg1613
I228
sS's'
I309
sg1614
I2627
sg1615
I1472
sg1616
I3322
sg1617
I3391
sg1618
I1330
sg1619
I3047
sg1620
I1216
sg1621
I1356
sg1622
I1937
sg1623
I2519
sg1624
I1211
sg1625
I3024
sg1626
I3181
sg1627
I893
sg1628
I2174
sg1629
I2012
sg1630
I2914
sg1631
I1504
sg1632
I416
sg1633
I2776
sg1634
I1151
sg1635
I2530
sg1636
I2353
sg1637
I2621
sg1638
I3608
sg1639
I245
sg1640
I1698
sg1641
I2292
sg1642
I3277
sg1643
I1857
sg1644
I843
sg1645
I2891
sg1646
I1720
sg1647
I2487
sg1648
I105
sg1649
I3525
sg1650
I3569
sg1651
I3186
sg1652
I1798
sg1653
I3108
sg1654
I3778
sg1655
I2022
sg1656
I2611
sg1657
I2272
sg1658
I3896
sg1659
I1196
sg1660
I788
sg1661
I1114
sg1662
I1835
sg1663
I1679
sg1664
I2831
sg1665
I3059
sg1666
I825
sg1667
I1005
sg1668
I2269
sg1669
I3258
sg1670
I736
sg1671
I2536
sg1672
I3687
sg1673
I1961
sg1674
I3243
sg1675
I3095
sg1676
I1895
sg1677
I3312
sg1678
I2407
sg1679
I1086
sg1680
I2651
sg1681
I1363
sg1682
I3645
sg1683
I822
sg1684
I2337
sg1685
I1986
sg1686
I2549
sg1687
I857
sg1688
I3301
sg1689
I1377
sg1690
I1775
sg1691
I671
sg1692
I1909
sg1693
I1839
sg1694
I3359
sg1695
I1186
sg1696
I1664
sg1697
I1160
sg1698
I3615
sg1699
I546
sg1700
I3566
sg1701
I663
sg1702
I1459
sg1703
I3327
sg1704
I1526
sg1705
I3100
sS'I'
I1260
sg1706
I2225
sg1707
I3504
sg1708
I1178
sg1709
I3659
sg1710
I1490
sg1711
I2734
sg1712
I3340
sg1713
I2921
sg1714
I2521
sg1715
I2801
sg1716
I3487
sg1717
I22
sg1718
I3842
sg1719
I578
sg1720
I813
sg1721
I3521
sg1722
I9
sg1723
I676
sg1724
I3418
sg1725
I2575
sg1726
I1538
sg1727
I3756
sg1728
I1380
sg1729
I3175
sg1730
I3709
sg1731
I1429
sg1732
I1084
sg1733
I1372
sg1734
I196
sg1735
I873
sg1736
I1169
sg1737
I1251
sg1738
I867
sg1739
I3408
sg1740
I1876
sg1741
I52
sg1742
I1752
sg1743
I421
sg1744
I541
sg1745
I351
sg1746
I2582
sg1747
I2537
sg1748
I2890
sg1749
I1653
sg1750
I2650
sg1751
I3332
sg1752
I1659
sg1753
I714
sg1754
I3144
sg1755
I3361
sS'4'
I482
sg1756
I1996
sg1757
I405
sg1758
I1889
sg1759
I2385
sg1760
I1022
sg1761
I1204
sg1762
I2137
sg1763
I4
sg1764
I1340
sg1765
I2595
sg1766
I335
sg1767
I3657
sg1768
I935
sg1769
I3075
sg1770
I687
sg1771
I1205
sg1772
I610
sg1773
I2696
sg1774
I2847
sg1775
I1891
sg1776
I2892
sg1777
I3279
sg1778
I3334
sg1779
I684
sg1780
I3474
sg1781
I2638
sg1782
I3008
sg1783
I3797
sg1784
I360
sS't'
I1133
sg1785
I2181
sg1786
I3099
sg1787
I810
sg1788
I1652
sg1789
I1384
sg1790
I1846
sg1791
I3187
sg1792
I783
sg1793
I1873
sg1794
I1984
sg1795
I1078
sg1796
I148
sg1797
I1425
sg1798
I2987
sg1799
I371
sg1800
I2906
sg1801
I3689
sg1802
I1227
sg1803
I3225
sg1804
I3040
sg1805
I1132
sg1806
I2102
sg1807
I2616
sg1808
I475
sg1809
I1264
sg1810
I3398
sg1811
I3841
sg1812
I191
sg1813
I3742
sg1814
I728
sg1815
I2443
sg1816
I2893
sg1817
I2863
sg1818
I2654
sg1819
I273
sg1820
I1003
sg1821
I3609
sg1822
I1924
sg1823
I537
sg1824
I2255
sg1825
I154
sg1826
I1893
sg1827
I1261
sg1828
I185
sg1829
I447
sg1830
I3004
sg1831
I91
sg1832
I616
sg1833
I3164
sg1834
I2832
sg1835
I502
sg1836
I2416
sg1837
I3404
sg1838
I2347
sg1839
I2532
sg1840
I1580
sg1841
I535
sg1842
I3575
sg1843
I3381
sg1844
I422
sg1845
I3044
sg1846
I1197
sg1847
I3479
sg1848
I3083
sg1849
I3809
sg1850
I2978
sg1851
I905
sg1852
I3808
sg1853
I517
sg1854
I2825
sg1855
I2855
sg1856
I779
sg1857
I1421
sg1858
I1972
sg1859
I1404
sg1860
I846
sg1861
I1280
sg1862
I172
sg1863
I2833
sg1864
I806
sg1865
I3696
sg1866
I2376
sg1867
I1325
sg1868
I611
sg1869
I1564
sg1870
I915
sg1871
I3776
sg1872
I2466
sg1873
I3524
sg1874
I3001
sg1875
I3604
sS'J'
I722
sg1876
I3021
sg1877
I394
sg1878
I2491
sg1879
I1799
sg1880
I1981
sg1881
I501
sg1882
I48
sg1883
I2396
sg1884
I1750
sg1885
I3188
sg1886
I1626
sg1887
I364
sg1888
I1906
sg1889
I3831
sg1890
I3850
sg1891
I2055
sg1892
I3362
sg1893
I961
sg1894
I830
sg1895
I2313
sg1896
I2401
sg1897
I3791
sg1898
I2619
sg1899
I1161
sg1900
I3806
sg1901
I2812
sg1902
I1128
sg1903
I2455
sg1904
I3050
sg1905
I2580
sg1906
I2118
sg1907
I1172
sg1908
I208
sg1909
I2032
sg1910
I170
sg1911
I1297
sg1912
I2
sg1913
I2524
sg1914
I1265
sg1915
I661
sg1916
I1253
sg1917
I3042
sg1918
I2774
sg1919
I1085
sg1920
I1706
sg1921
I2210
sg1922
I2933
sg1923
I526
sg1924
I2461
sg1925
I1655
sg1926
I1148
sS'5'
I824
sg1927
I3397
sg1928
I60
sg1929
I24
sg1930
I1931
sg1931
I664
sg1932
I3819
sg1933
I1905
sg1934
I566
sg1935
I2427
sg1936
I796
sg1937
I1475
sg1938
I1208
sg1939
I101
sg1940
I2336
sg1941
I1934
sg1942
I446
sg1943
I752
sg1944
I3506
sg1945
I1615
sg1946
I3844
sg1947
I3259
sg1948
I2091
sg1949
I2429
sg1950
I2029
sg1951
I1333
sg1952
I1545
sg1953
I3649
sg1954
I3586
sg1955
I2769
sg1956
I1890
sg1957
I538
sg1958
I1376
sg1959
I2131
sS'u'
I1668
sg1960
I3529
sg1961
I92
sg1962
I3200
sg1963
I2598
sg1964
I3375
sg1965
I2217
sg1966
I316
sg1967
I2480
sg1968
I1308
sg1969
I3780
sg1970
I3237
sg1971
I1649
sg1972
I2371
sg1973
I2678
sg1974
I3761
sg1975
I2695
sg1976
I162
sg1977
I3700
sg1978
I3489
sg1979
I2885
sg1980
I3220
sg1981
I3016
sg1982
I67
sg1983
I2795
sg1984
I3293
sg1985
I3199
sg1986
I356
sg1987
I1467
sg1988
I948
sg1989
I2823
sg1990
I1039
sg1991
I2500
sg1992
I2213
sg1993
I7
sg1994
I807
sg1995
I2380
sg1996
I8
sg1997
I1048
sg1998
I3777
sg1999
I2103
sg2000
I1361
sg2001
I1684
sg2002
I2274
sg2003
I152
sg2004
I2203
sg2005
I2478
sg2006
I2351
sg2007
I1523
sg2008
I3674
sg2009
I1155
sg2010
I11
sg2011
I3157
sg2012
I3826
sg2013
I2372
sg2014
I2395
sg2015
I1563
sg2016
I1987
sg2017
I1113
sg2018
I1105
sg2019
I2293
sg2020
I1276
sg2021
I3051
sg2022
I568
sg2023
I457
sg2024
I2567
sg2025
I994
sg2026
I3168
sg2027
I1979
sg2028
I3466
sg2029
I2931
sg2030
I2256
sg2031
I342
sg2032
I3130
sg2033
I466
sg2034
I2001
sg2035
I1143
sg2036
I3542
sg2037
I367
sg2038
I1164
sg2039
I1167
sg2040
I3889
sg2041
I606
sg2042
I444
sg2043
I704
sg2044
I219
sg2045
I2706
sg2046
I3897
sg2047
I2562
sg2048
I3003
sg2049
I2454
sg2050
I2956
sg2051
I3382
sg2052
I112
sg2053
I3112
sg2054
I1528
sg2055
I3039
sg2056
I3395
sg2057
I3325
sg2058
I2849
sg2059
I1850
sg2060
I2685
sg2061
I3406
sg2062
I562
sg2063
I2672
sg2064
I2860
sg2065
I643
sg2066
I2423
sg2067
I1422
sg2068
I1914
sg2069
I1559
sg2070
I3665
sg2071
I2632
sg2072
I1992
sg2073
I1074
sg2074
I310
sg2075
I448
sg2076
I1719
sg2077
I2197
sg2078
I2049
sg2079
I3029
sg2080
I1375
sg2081
I151
sg2082
I524
sg2083
I3069
sg2084
I1122
sg2085
I3568
sg2086
I2037
sg2087
I1001
sg2088
I3117
sg2089
I209
sg2090
I2565
sg2091
I733
sg2092
I190
sg2093
I2249
sg2094
I1570
sg2095
I580
sg2096
I2505
sg2097
I2006
sg2098
I3307
sg2099
I3583
sg2100
I2009
sg2101
I3607
sg2102
I212
sg2103
I3863
sg2104
I3579
sg2105
I2312
sg2106
I239
sS'6'
I1283
sg2107
I455
sg2108
I1844
sg2109
I1647
sg2110
I2790
sg2111
I1695
sg2112
I480
sg2113
I50
sg2114
I493
sg2115
I2163
sg2116
I1838
sg2117
I3380
sg2118
I386
sg2119
I138
sg2120
I3232
sg2121
I1407
sg2122
I3577
sg2123
I1569
sg2124
I991
sg2125
I2548
sg2126
I459
sg2127
I1399
sg2128
I2355
sg2129
I2138
sg2130
I3371
sg2131
I2488
sg2132
I2889
sg2133
I1102
sg2134
I1506
sg2135
I1688
sg2136
I2288
sg2137
I876
sg2138
I294
sg2139
I808
sg2140
I2767
sg2141
I832
sg2142
I795
sg2143
I2878
sg2144
I2556
sg2145
I3546
sg2146
I515
sg2147
I2126
sg2148
I1066
sg2149
I1806
sg2150
I879
sg2151
I1171
sg2152
I3839
sg2153
I1542
sg2154
I577
sg2155
I3400
sg2156
I3129
sg2157
I2964
sg2158
I973
sg2159
I1689
sg2160
I1137
sg2161
I2145
sg2162
I2835
sg2163
I2871
sg2164
I2509
sg2165
I731
sg2166
I3289
sg2167
I3106
sg2168
I3660
sg2169
I3189
sg2170
I2737
sg2171
I3390
sg2172
I2077
sg2173
I1423
sg2174
I198
sg2175
I1768
sg2176
I2472
sg2177
I839
sg2178
I2934
sg2179
I3276
sg2180
I2214
sg2181
I1817
sg2182
I2390
sg2183
I3846
sg2184
I111
sg2185
I2352
sg2186
I754
sg2187
I3661
sg2188
I842
sS'a'
I29
sg2189
I1070
sg2190
I2162
sg2191
I633
sg2192
I1413
sg2193
I559
sg2194
I300
sg2195
I665
sg2196
I1351
sg2197
I2788
sg2198
I2324
sg2199
I1548
sg2200
I781
sg2201
I1856
sg2202
I1527
sg2203
I3138
sg2204
I2182
sg2205
I2920
sg2206
I532
sg2207
I1808
sg2208
I2189
sg2209
I1669
sg2210
I2686
sg2211
I3458
sg2212
I3879
sg2213
I826
sg2214
I307
sg2215
I1095
sg2216
I815
sg2217
I1096
sg2218
I1943
sg2219
I379
sg2220
I203
sg2221
I253
sg2222
I2468
sg2223
I3701
sg2224
I2442
sg2225
I187
sg2226
I3515
sg2227
I3065
sg2228
I2247
sg2229
I886
sg2230
I179
sg2231
I1703
sg2232
I644
sg2233
I1886
sg2234
I1119
sg2235
I992
sg2236
I3127
sg2237
I1202
sg2238
I100
sg2239
I2031
sg2240
I2950
sg2241
I2092
sg2242
I3222
sg2243
I2469
sg2244
I3124
sg2245
I2123
sg2246
I486
sg2247
I1918
sg2248
I121
sg2249
I1888
sg2250
I3345
sg2251
I3553
sg2252
I3135
sg2253
I1997
sg2254
I3227
sg2255
I3330
sg2256
I3483
sg2257
I1279
sg2258
I719
sg2259
I3011
sg2260
I2775
sg2261
I2504
sg2262
I536
sg2263
I411
sg2264
I352
sg2265
I1027
sg2266
I1052
sg2267
I747
sg2268
I2708
sg2269
I1353
sg2270
I1547
sg2271
I158
sg2272
I547
sg2273
I1805
sg2274
I2988
sg2275
I2457
sg2276
I2382
sg2277
I2359
sg2278
I2117
sg2279
I3495
sg2280
I1861
sg2281
I901
sg2282
I2013
sg2283
I131
sg2284
I3000
sg2285
I3840
sg2286
I1696
sg2287
I3167
sg2288
I12
sg2289
I1367
sg2290
I96
sg2291
I1044
sg2292
I241
sg2293
I3430
sg2294
I2546
sg2295
I2615
sg2296
I658
sg2297
I624
sg2298
I3143
sS'7'
I1505
sg2299
I720
sg2300
I890
sg2301
I3271
sg2302
I900
sg2303
I3373
sg2304
I647
sg2305
I161
sg2306
I1430
sg2307
I1246
sg2308
I1533
sg2309
I3288
sg2310
I407
sg2311
I3903
sg2312
I462
sg2313
I1087
sg2314
I3697
sg2315
I984
sg2316
I3870
sg2317
I1067
sg2318
I3836
sg2319
I2081
sg2320
I1593
sg2321
I3882
sg2322
I2108
sg2323
I319
sg2324
I1525
sg2325
I3871
sg2326
I3650
sg2327
I177
sg2328
I520
sg2329
I79
sg2330
I2419
sg2331
I2111
sg2332
I3767
sg2333
I3281
sg2334
I2134
sg2335
I3691
sg2336
I479
sg2337
I3224
sg2338
I3663
sg2339
I333
sg2340
I2757
sg2341
I2433
sg2342
I2883
sg2343
I1748
sg2344
I1746
sg2345
I3658
sg2346
I2445
sg2347
I2237
sg2348
I1630
sg2349
I3250
sg2350
I607
sg2351
I2234
sg2352
I2747
sg2353
I2955
sg2354
I2306
sg2355
I2494
sg2356
I1045
sg2357
I1112
sg2358
I1267
sg2359
I3564
sg2360
I531
sg2361
I3551
sg2362
I2268
sg2363
I1446
sg2364
I2948
sg2365
I2178
sg2366
I2761
sg2367
I414
sg2368
I2251
sg2369
I3629
sg2370
I1608
sg2371
I1386
sg2372
I823
sg2373
I2100
sg2374
I694
sg2375
I2236
sg2376
I3880
sg2377
I2266
sg2378
I104
sg2379
I465
sg2380
I3433
sg2381
I3484
sg2382
I2450
sg2383
I1870
sg2384
I2986
sg2385
I3773
sg2386
I1946
sg2387
I2540
sg2388
I543
sg2389
I3303
sS'b'
I2206
sg2390
I2637
sg2391
I2805
sg2392
I3641
sg2393
I2996
sg2394
I1115
sg2395
I1743
sg2396
I439
sg2397
I3876
sg2398
I2002
sg2399
I3468
sg2400
I3536
sg2401
I2141
sg2402
I3341
sg2403
I2026
sg2404
I1344
sg2405
I3815
sg2406
I132
sg2407
I3228
sg2408
I599
sg2409
I2015
sg2410
I3634
sg2411
I768
sg2412
I197
sg2413
I3180
sg2414
I1190
sg2415
I1337
sg2416
I195
sg2417
I3368
sg2418
I86
sg2419
I2542
sg2420
I123
sg2421
I451
sg2422
I586
sg2423
I2725
sg2424
I1513
sg2425
I3832
sg2426
I1011
sg2427
I1971
sg2428
I3071
sg2429
I14
sg2430
I841
sg2431
I1453
sg2432
I3272
sg2433
I1534
sg2434
I1306
sg2435
I3754
sg2436
I996
sg2437
I1199
sg2438
I3007
sg2439
I3884
sg2440
I31
sg2441
I1091
sg2442
I2241
sg2443
I2403
sg2444
I3274
sg2445
I2151
sg2446
I3061
sg2447
I2960
sg2448
I76
sg2449
I3723
sg2450
I3267
sg2451
I1352
sg2452
I2129
sg2453
I1108
sg2454
I1560
sg2455
I2246
sg2456
I670
sg2457
I1656
sg2458
I2796
sg2459
I1098
sg2460
I2458
sg2461
I2446
sg2462
I2437
sg2463
I1718
sg2464
I2447
sg2465
I3247
sg2466
I3134
sg2467
I2973
sg2468
I2204
sg2469
I1928
sg2470
I3093
sg2471
I496
sg2472
I3820
sg2473
I3217
sg2474
I2634
sg2475
I3843
sg2476
I1445
sg2477
I1477
sg2478
I2220
sg2479
I1708
sg2480
I2302
sg2481
I1702
sg2482
I2155
sg2483
I1874
sg2484
I3041
sg2485
I2721
sg2486
I363
sg2487
I2907
sg2488
I1726
sg2489
I2329
sg2490
I2348
sg2491
I397
sS'8'
I1123
sg2492
I1292
sg2493
I278
sg2494
I2972
sg2495
I83
sg2496
I899
sg2497
I654
sg2498
I1537
sg2499
I3555
sg2500
I70
sg2501
I3728
sg2502
I144
sg2503
I3828
sg2504
I869
sg2505
I3635
sg2506
I2786
sg2507
I403
sg2508
I368
sg2509
I503
sg2510
I3901
sg2511
I2493
sg2512
I2014
sg2513
I2830
sg2514
I947
sg2515
I3114
sg2516
I1464
sg2517
I2594
sg2518
I3811
sg2519
I1624
sg2520
I2758
sg2521
I1860
sg2522
I2098
sg2523
I2475
sg2524
I3747
sg2525
I1980
sg2526
I993
sg2527
I1840
sg2528
I2704
sg2529
I1801
sg2530
I551
sg2531
I2526
sg2532
I2935
sg2533
I1955
sg2534
I1440
sg2535
I3292
sg2536
I3350
sg2537
I2917
sg2538
I205
sg2539
I2991
sg2540
I99
sg2541
I3893
sg2542
I398
sg2543
I3470
sg2544
I49
sg2545
I3176
sg2546
I1485
sg2547
I1348
sg2548
I1395
sg2549
I1010
sg2550
I954
sg2551
I3402
sg2552
I3432
sg2553
I3291
sg2554
I1557
sg2555
I3154
sg2556
I2644
sg2557
I178
sg2558
I1771
sg2559
I1933
sg2560
I1944
sg2561
I2908
sg2562
I1002
sg2563
I2075
sg2564
I697
sg2565
I2159
sg2566
I668
sg2567
I2053
sg2568
I1651
sg2569
I2011
sg2570
I2639
sg2571
I706
sg2572
I1966
sg2573
I127
sS'c'
I1154
sg2574
I456
sg2575
I2923
sg2576
I3160
sg2577
I601
sg2578
I1346
sg2579
I331
sg2580
I2307
sg2581
I1219
sg2582
I283
sg2583
I3561
sg2584
I400
sg2585
I280
sg2586
I2474
sg2587
I3379
sg2588
I3744
sg2589
I1400
sg2590
I2614
sg2591
I385
sg2592
I2467
sg2593
I2629
sg2594
I581
sg2595
I708
sg2596
I2490
sg2597
I2327
sg2598
I3324
sg2599
I1405
sg2600
I2941
sg2601
I1969
sg2602
I1031
sg2603
I2386
sg2604
I3477
sg2605
I28
sg2606
I814
sg2607
I3335
sg2608
I2089
sg2609
I1999
sg2610
I1240
sg2611
I1317
sg2612
I2233
sg2613
I2971
sg2614
I1051
sg2615
I425
sg2616
I1147
sg2617
I690
sg2618
I365
sg2619
I495
sg2620
I1412
sg2621
I1195
sg2622
I1343
sg2623
I2248
sg2624
I2040
sg2625
I1945
sg2626
I1189
sg2627
I1229
sg2628
I3387
sS'N'
I2010
sg2629
I2607
sg2630
I3096
sg2631
I2603
sg2632
I2596
sg2633
I3348
sg2634
I413
sg2635
I2693
sg2636
I3139
sg2637
I634
sg2638
I321
sg2639
I3749
sg2640
I126
sg2641
I3198
sg2642
I1304
sg2643
I1159
sg2644
I314
sg2645
I150
sg2646
I2110
sg2647
I2144
sg2648
I3877
sg2649
I1555
sg2650
I635
sg2651
I2802
sg2652
I3060
sg2653
I3010
sg2654
I1821
sg2655
I3442
sg2656
I2287
sg2657
I3578
sg2658
I3290
sg2659
I3064
sg2660
I1514
sg2661
I2367
sg2662
I2492
sg2663
I2648
sg2664
I2717
sg2665
I237
sg2666
I1336
sg2667
I1818
sg2668
I2086
sg2669
I3031
sg2670
I3612
sg2671
I3378
sg2672
I453
sg2673
I1852
sS'9'
I260
sg2674
I2061
sg2675
I3120
sg2676
I2746
sg2677
I2484
sg2678
I45
sg2679
I2432
sg2680
I2079
sg2681
I1614
sg2682
I3848
sg2683
I2946
sg2684
I2476
sg2685
I3414
sg2686
I1099
sg2687
I745
sg2688
I1049
sg2689
I1960
sg2690
I685
sg2691
I2363
sg2692
I2523
sg2693
I303
sg2694
I107
sg2695
I1293
sg2696
I1729
sg2697
I3183
sg2698
I3229
sg2699
I2397
sg2700
I1170
sg2701
I1223
sg2702
I477
sg2703
I1554
sg2704
I1373
sg2705
I1777
sg2706
I2331
sS'y'
I56
sg2707
I812
sg2708
I1008
sg2709
I3111
sg2710
I1786
sg2711
I3213
sg2712
I1654
sg2713
I3248
sg2714
I1601
sg2715
I2192
sg2716
I698
sg2717
I1604
sg2718
I2017
sg2719
I2299
sg2720
I1988
sg2721
I109
sg2722
I3171
sg2723
I2400
sg2724
I2759
sg2725
I3403
sg2726
I1613
sg2727
I1691
sg2728
I3818
sg2729
I2713
sg2730
I3035
sg2731
I2464
sg2732
I2135
sg2733
I2676
sg2734
I1595
sg2735
I2929
sg2736
I619
sg2737
I1976
sg2738
I1233
sg2739
I770
sg2740
I1403
sg2741
I3771
sg2742
I852
sg2743
I1295
sg2744
I1756
sg2745
I3058
sg2746
I1274
sg2747
I450
sg2748
I924
sg2749
I1158
sg2750
I1076
sg2751
I574
sg2752
I3153
sg2753
I3584
sg2754
I2910
sg2755
I2093
sg2756
I2373
sS'd'
I361
sg2757
I3363
sg2758
I638
sg2759
I1970
sg2760
I683
sg2761
I470
sg2762
I3326
sg2763
I1021
sg2764
I423
sg2765
I2853
sg2766
I1493
sg2767
I2161
sg2768
I238
sg2769
I3881
sg2770
I3452
sg2771
I2153
sg2772
I145
sg2773
I272
sg2774
I2658
sg2775
I1571
sg2776
I1298
sg2777
I175
sg2778
I3783
sg2779
I3255
sg2780
I1787
sg2781
I326
sg2782
I1643
sg2783
I117
sg2784
I2008
sg2785
I3253
sg2786
I1621
sg2787
I2279
sg2788
I2338
sg2789
I229
sg2790
I2424
sg2791
I940
sg2792
I1915
sg2793
I3048
sg2794
I3076
sg2795
I1967
sg2796
I1731
sg2797
I3480
sg2798
I980
sg2799
I533
sg2800
I44
sg2801
I2294
sg2802
I3685
sg2803
I1531
sg2804
I573
sg2805
I655
sg2806
I756
sg2807
I3668
sg2808
I969
sg2809
I3878
sg2810
I3246
sg2811
I139
sg2812
I3698
sg2813
I558
sg2814
I3336
sg2815
I2115
sg2816
I435
sg2817
I2535
sg2818
I3621
sg2819
I819
sg2820
I721
sg2821
I3184
sg2822
I2943
sg2823
I3580
sg2824
I3158
sg2825
I2453
sg2826
I2666
sg2827
I1185
sg2828
I2140
sg2829
I1619
sg2830
I1507
sg2831
I3415
sg2832
I3807
sg2833
I1658
sg2834
I3409
sg2835
I35
sg2836
I2107
sg2837
I1494
sg2838
I1193
sg2839
I1109
sg2840
I2571
sg2841
I2305
sg2842
I120
sg2843
I693
sg2844
I1368
sg2845
I3136
sg2846
I1201
sg2847
I2554
sg2848
I3720
sg2849
I1401
sg2850
I617
sg2851
I2623
sg2852
I3309
sg2853
I1929
sg2854
I163
sg2855
I1230
sg2856
I433
sg2857
I3147
sg2858
I1588
sg2859
I2593
sg2860
I1471
sg2861
I3513
sg2862
I1813
sg2863
I3367
sg2864
I2882
sg2865
I3482
sg2866
I3465
sg2867
I3822
sg2868
I1810
sg2869
I2553
sg2870
I1447
sg2871
I3671
sg2872
I1894
sg2873
I1173
sg2874
I1903
sg2875
I2806
sg2876
I1552
sg2877
I2646
sg2878
I1043
sg2879
I2919
sg2880
I1829
sg2881
I1562
sg2882
I583
sg2883
I2828
sg2884
I630
sg2885
I2975
sg2886
I95
sg2887
I1299
sg2888
I1671
sg2889
I1424
sg2890
I2531
sg2891
I320
sg2892
I1788
sg2893
I2589
sg2894
I916
sg2895
I593
sg2896
I918
sg2897
I1176
sg2898
I3236
sg2899
I1686
sS'm'
I1286
sg2900
I1152
sg2901
I3148
sg2902
I2764
sg2903
I1816
sg2904
I1723
sg2905
I2864
sg2906
I666
sg2907
I3628
sg2908
I2041
sg2909
I3347
sg2910
I1568
sg2911
I1639
sg2912
I3497
sg2913
I3026
sg2914
I1858
sg2915
I3570
sg2916
I3630
sg2917
I1995
sg2918
I746
sg2919
I3265
sg2920
I2760
sg2921
I3235
sg2922
I1898
sg2923
I1612
sg2924
I1951
sg2925
I2240
sg2926
I861
sg2927
I2223
sg2928
I2979
sg2929
I912
sg2930
I975
sg2931
I653
sg2932
I952
sg2933
I587
sg2934
I3038
sg2935
I2167
sg2936
I1063
sg2937
I763
sg2938
I3830
sg2939
I3337
sS'e'
I805
sg2940
I3354
sg2941
I2069
sg2942
I2993
sg2943
I3321
sg2944
I1776
sg2945
I3459
sg2946
I1466
sg2947
I267
sg2948
I424
sg2949
I766
sg2950
I2539
sg2951
I3178
sg2952
I919
sg2953
I748
sg2954
I3472
sg2955
I346
sg2956
I2936
sg2957
I1396
sg2958
I2732
sg2959
I782
sg2960
I340
sg2961
I757
sg2962
I2361
sg2963
I1710
sg2964
I530
sg2965
I1742
sg2966
I93
sg2967
I2661
sg2968
I2712
sg2969
I3636
sg2970
I2156
sg2971
I3727
sg2972
I2451
sg2973
I897
sg2974
I962
sg2975
I2282
sg2976
I2280
sg2977
I737
sg2978
I1920
sg2979
I2325
sg2980
I1192
sg2981
I734
sg2982
I1853
sg2983
I817
sg2984
I2289
sg2985
I345
sg2986
I3311
sg2987
I249
sg2988
I572
sg2989
I1953
sg2990
I255
sg2991
I528
sg2992
I3221
sS'f'
I1715
sg2993
I156
sg2994
I3269
sg2995
I1738
sg2996
I2479
sg2997
I2999
sg2998
I834
sg2999
I3241
sg3000
I3365
sg3001
I1093
sg3002
I3864
sg3003
I1635
sg3004
I2435
sg3005
I2501
sg3006
I2392
sg3007
I2411
sg3008
I3517
sg3009
I2171
sg3010
I291
sg3011
I3364
sg3012
I336
sg3013
I2215
sg3014
I1782
sg3015
I1092
sg3016
I82
sg3017
I254
sg3018
I1543
sg3019
I3535
sg3020
I811
sg3021
I2202
sg3022
I1899
sg3023
I2238
sg3024
I1851
sg3025
I2183
sg3026
I3588
sg3027
I3245
sg3028
I3078
sg3029
I3092
sg3030
I1529
sg3031
I2262
sg3032
I2264
sg3033
I1674
sg3034
I2641
sg3035
I1111
sg3036
I1722
sg3037
I3597
sg3038
I2739
sg3039
I2410
sg3040
I3131
sg3041
I855
sg3042
I1990
sg3043
I862
sg3044
I2529
sg3045
I3632
sg3046
I3673
sg3047
I2655
sg3048
I2584
sg3049
I1645
sg3050
I55
sg3051
I2185
sg3052
I1444
sg3053
I106
sg3054
I1637
sg3055
I1646
sg3056
I2164
sg3057
I1930
sg3058
I220
sg3059
I576
sg3060
I1288
sg3061
I3185
sg3062
I3323
sg3063
I1755
sg3064
I2585
sg3065
I3618
sg3066
I2765
sg3067
I885
sg3068
I3329
sg3069
I3182
sg3070
I1577
sg3071
I393
sg3072
I3853
sg3073
I3682
sg3074
I1262
sg3075
I2275
sg3076
I141
sg3077
I1681
sg3078
I3743
sg3079
I1184
sg3080
I3283
sg3081
I285
sg3082
I3152
sg3083
I777
sg3084
I2569
sg3085
I2449
sg3086
I2601
sg3087
I2489
sg3088
I2900
sg3089
I1390
sg3090
I2420
sg3091
I2345
sg3092
I669
sg3093
I1594
sg3094
I966
sg3095
I32
sg3096
I1697
sg3097
I2797
sg3098
I329
sg3099
I2260
sg3100
I1663
sg3101
I2730
sg3102
I724
sg3103
I1521
sg3104
I23
sg3105
I2286
sg3106
I328
sg3107
I2323
sg3108
I3721
sg3109
I2516
sg3110
I1551
sg3111
I2502
sg3112
I2710
sg3113
I1926
sg3114
I2169
sg3115
I2507
sg3116
I427
sg3117
I1727
sg3118
I3764
sg3119
I3207
sg3120
I417
sg3121
I1029
sg3122
I1418
sg3123
I1900
sg3124
I3683
sg3125
I1138
sg3126
I2440
sg3127
I180
sg3128
I641
sg3129
I1004
sg3130
I1503
sg3131
I3619
sg3132
I2763
sg3133
I2473
sg3134
I1320
sg3135
I2691
sg3136
I3718
sg3137
I1833
sg3138
I2770
sg3139
I1198
sg3140
I3858
sg3141
I2622
sg3142
I2876
sg3143
I1315
sg3144
I3357
sg3145
I380
sg3146
I519
sg3147
I1441
sg3148
I2784
sg3149
I3827
sg3150
I3772
sg3151
I3498
sg3152
I1778
sg3153
I1939
sg3154
I1598
sg3155
I2460
sg3156
I3669
sg3157
I3887
sg3158
I37
sg3159
I3055
sg3160
I3770
sg3161
I434
sg3162
I2989
sg3163
I3541
sg3164
I567
sg3165
I2834
sg3166
I2552
sg3167
I3159
sg3168
I1038
sg3169
I337
sg3170
I2714
sg3171
I323
sg3172
I1549
sg3173
I618
sg3174
I990
sg3175
I2793
sg3176
I3610
sg3177
I2630
sg3178
I1318
sg3179
I313
sg3180
I3693
sg3181
I3411
sg3182
I2977
sg3183
I1875
sg3184
I3598
sg3185
I3605
sg3186
I2513
sg3187
I2667
sg3188
I656
sg3189
I608
sg3190
I1661
sg3191
I3318
sg3192
I2674
sg3193
I2702
sg3194
I1498
sg3195
I2027
sg3196
I3710
sg3197
I3511
sg3198
I3086
sg3199
I1814
sg3200
I2021
sg3201
I1975
sg3202
I828
sg3203
I632
sg3204
I623
sg3205
I3469
sg3206
I773
sg3207
I1385
sg3208
I276
sg3209
I1019
sg3210
I1107
sg3211
I2506
sg3212
I883
sg3213
I1307
sg3214
I3088
sg3215
I2431
sg3216
I2755
sg3217
I3775
sg3218
I691
sg3219
I2065
sg3220
I65
sg3221
I3886
sg3222
I2745
sg3223
I1524
sg3224
I3812
sg3225
I2875
sg3226
I1672
sg3227
I959
sg3228
I2438
sg3229
I596
sg3230
I1035
sg3231
I1235
sg3232
I925
sg3233
I2837
sg3234
I3445
sg3235
I1825
sg3236
I1760
sg3237
I3275
sg3238
I3730
sg3239
I2577
sg3240
I1878
sg3241
I998
sg3242
I510
sg3243
I2618
sg3244
I2694
sg3245
I1827
sg3246
I2842
sg3247
I3202
sg3248
I136
sg3249
I838
sg3250
I2439
sg3251
I1733
sg3252
I3455
sg3253
I809
sg3254
I1451
sg3255
I3784
sg3256
I3684
sg3257
I1009
sg3258
I3867
sg3259
I1452
sg3260
I1794
sg3261
I483
sg3262
I468
sg3263
I1536
sg3264
I3212
sg3265
I3486
sg3266
I1457
sg3267
I200
sg3268
I2592
sg3269
I1963
sS"'"
I2574
sg3270
I3209
sg3271
I1869
sg3272
I2495
sg3273
I3485
sg3274
I2528
sg3275
I3719
sg3276
I3676
sg3277
I1586
sg3278
I3098
sg3279
I2599
sg3280
I2899
sg3281
I1901
sg3282
I3611
sg3283
I1072
sg3284
I2384
sg3285
I2783
sg3286
I1488
sg3287
I1761
sg3288
I1792
sg3289
I974
sg3290
I725
sg3291
I657
sg3292
I3527
sg3293
I507
sg3294
I3206
sg3295
I3118
sg3296
I2051
sg3297
I1680
sg3298
I1357
sg3299
I3126
sS'g'
I847
sg3300
I42
sg3301
I1709
sg3302
I3317
sg3303
I437
sg3304
I317
sg3305
I3308
sg3306
I3017
sg3307
I1312
sg3308
I3672
sg3309
I3765
sg3310
I128
sg3311
I3652
sg3312
I3616
sg3313
I3829
sg3314
I3530
sg3315
I1824
sg3316
I2604
sg3317
I1558
sg3318
I1492
sg3319
I3196
sg3320
I2375
sg3321
I2731
sg3322
I2744
sg3323
I1974
sg3324
I2879
sg3325
I115
sg3326
I62
sg3327
I3457
sg3328
I218
sg3329
I2738
sg3330
I512
sg3331
I357
sg3332
I1596
sg3333
I206
sg3334
I1243
sg3335
I2945
sg3336
I1175
sg3337
I287
sg3338
I384
sg3339
I1602
sg3340
I2212
sg3341
I1311
sg3342
I2951
sg3343
I2071
sg3344
I125
sg3345
I1061
sg3346
I1054
sg3347
I1978
sg3348
I1476
sS'R'
I637
sg3349
I1600
sg3350
I2664
sg3351
I2930
sg3352
I3587
sg3353
I2736
sg3354
I297
sg3355
I3594
sg3356
I1936
sg3357
I2684
sg3358
I1576
sg3359
I837
sg3360
I1815
sg3361
I2829
sg3362
I646
sg3363
I692
sg3364
I2612
sg3365
I2985
sg3366
I3443
sg3367
I3740
sg3368
I2441
sg3369
I2332
sg3370
I3782
sg3371
I3356
sg3372
I3045
sg3373
I3019
sg3374
I2918
sg3375
I3614
sg3376
I3793
sg3377
I5
sg3378
I1007
sg3379
I3574
sg3380
I2559
sg3381
I2374
sg3382
I3590
sg3383
I3488
sg3384
I1387
sg3385
I3904
sg3386
I3866
sg3387
I2254
sg3388
I922
sg3389
I3070
sg3390
I3711
sg3391
I3346
sg3392
I438
sg3393
I2308
sg3394
I1338
sg3395
I3030
sg3396
I3648
sg3397
I1789
sg3398
I274
sg3399
I3431
sg3400
I412
sg3401
I2673
sg3402
I2877
sg3403
I2152
sg3404
I1062
sg3405
I418
sg3406
I1998
sg3407
I2095
sg3408
I2038
sg3409
I2748
sg3410
I2541
sg3411
I3722
sg3412
I1345
sg3413
I2072
sg3414
I3729
sg3415
I2463
sg3416
I1767
sg3417
I3297
sg3418
I2377
sg3419
I3149
sg3420
I268
sg3421
I3231
sg3422
I628
sg3423
I1419
sg3424
I2393
sg3425
I1287
sg3426
I1642
sg3427
I2120
sg3428
I1156
sg3429
I2405
sg3430
I950
sg3431
I509
sg3432
I1917
sg3433
I3191
sg3434
I1912
sg3435
I2613
sg3436
I2640
sg3437
I2230
sg3438
I550
sg3439
I3803
sg3440
I1957
sg3441
I3313
sg3442
I1744
sg3443
I355
sg3444
I2258
sg3445
I716
sg3446
I3233
sg3447
I968
sg3448
I913
sg3449
I370
sg3450
I318
sg3451
I130
sg3452
I1090
sg3453
I1753
sg3454
I2992
sg3455
I3895
sg3456
I265
sg3457
I160
sg3458
I498
sg3459
I3537
sg3460
I613
sg3461
I3695
sg3462
I3763
sg3463
I2590
sg3464
I2679
sg3465
I3260
sg3466
I2127
sg3467
I718
sg3468
I1732
sg3469
I3306
sg3470
I3456
sg3471
I3463
sg3472
I1166
sg3473
I1200
sg3474
I686
sg3475
I2418
sg3476
I3009
sg3477
I971
sg3478
I1037
sg3479
I1142
sg3480
I1575
sg3481
I2772
sg3482
I1994
sg3483
I2235
sg3484
I2179
sg3485
I464
sg3486
I1342
sS'C'
I1692
sg3487
I882
sg3488
I2628
sg3489
I1784
sg3490
I213
sg3491
I3816
sg3492
I2699
sg3493
I2840
sg3494
I3163
sg3495
I3073
sg3496
I1867
sg3497
I3328
sg3498
I2221
sg3499
I3595
sg3500
I391
sg3501
I945
sg3502
I1842
sg3503
I153
sg3504
I3865
sg3505
I155
sg3506
I3230
sg3507
I928
sg3508
I1236
sg3509
I3528
sg3510
I2902
sg3511
I2222
sg3512
I3703
sg3513
I1757
sg3514
I590
sg3515
I1947
sg3516
I545
sg3517
I3554
sg3518
I3119
sg3519
I2857
sg3520
I2944
sg3521
I3748
sS'S'
I18
sg3522
I2459
sg3523
I2720
sg3524
I1268
sg3525
I1222
sS'w'
I2113
sg3526
I3172
sg3527
I2903
sg3528
I2870
sg3529
I406
sg3530
I2750
sg3531
I1290
sg3532
I3194
sg3533
I1518
sg3534
I1910
sg3535
I1871
sg3536
I2096
sg3537
I3105
sg3538
I3823
sg3539
I3424
sg3540
I3625
sg3541
I2896
sg3542
I1749
sg3543
I122
sg3544
I1887
sg3545
I3197
sg3546
I1281
sg3547
I2984
sg3548
I3252
sg3549
I3545
sg3550
I3572
sg3551
I625
sg3552
I1218
sg3553
I2019
sg3554
I3507
sg3555
I2322
sg3556
I3664
sg3557
I2729
sg3558
I1539
sg3559
I1941
sg3560
I3899
sg3561
I941
sg3562
I3800
sg3563
I2852
sg3564
I2346
sg3565
I848
sg3566
I3195
sg3567
I2591
sg3568
I1468
sg3569
I3349
sg3570
I1393
sg3571
I1863
sg3572
I741
sg3573
I324
sg3574
I2018
sg3575
I2148
sg3576
I2291
sg3577
I640
sg3578
I270
sg3579
I1242
sg3580
I1263
sg3581
I2698
sg3582
I2520
sg3583
I3079
sg3584
I2211
sg3585
I472
sg3586
I3033
sg3587
I1125
sg3588
I908
sg3589
I726
sg3590
I1077
sg3591
I2645
sg3592
I2052
sg3593
I906
sg3594
I487
sg3595
I1811
sg3596
I71
sg3597
I891
sg3598
I1644
sg3599
I1362
sg3600
I3435
sg3601
I907
sg3602
I3369
sg3603
I1616
sg3604
I1025
sg3605
I1428
sg3606
I2477
sg3607
I73
sg3608
I102
sg3609
I889
sg3610
I1145
sg3611
I895
sg3612
I3624
sg3613
I2062
sg3614
I2965
sg3615
I3752
sg3616
I2456
sg3617
I1690
sg3618
I2728
sg3619
I3193
sg3620
I3104
sg3621
I1410
sg3622
I1473
sg3623
I2897
sg3624
I2547
sg3625
I1303
sg3626
I377
sg3627
I240
sg3628
I2522
sg3629
I2366
sg3630
I827
sg3631
I1892
sg3632
I2003
sg3633
I2042
sg3634
I3254
sg3635
I358
sg3636
I742
sg3637
I3694
sg3638
I1675
sg3639
I461
sg3640
I3654
sg3641
I3107
sg3642
I2690
sg3643
I304
sg3644
I1677
sS'i'
I851
sg3645
I660
sg3646
I1479
sg3647
I449
sg3648
I1326
sg3649
I985
sg3650
I85
sg3651
I1081
sg3652
I2915
sg3653
I1985
sg3654
I2909
sg3655
I2099
sg3656
I1305
sg3657
I863
sg3658
I2609
sg3659
I1450
sg3660
I2652
sg3661
I831
sg3662
I1013
sg3663
I2085
sg3664
I1515
sg3665
I1618
sg3666
I1848
sg3667
I2245
sg3668
I2756
sg3669
I909
sg3670
I284
sg3671
I3412
sg3672
I2874
sg3673
I3013
sg3674
I2624
sg3675
I10
sg3676
I3539
sg3677
I2880
sg3678
I2543
sg3679
I216
sg3680
I1993
sg3681
I1369
sg3682
I72
sg3683
I259
sg3684
I1790
sg3685
I1101
sg3686
I2186
sg3687
I3655
sg3688
I544
sg3689
I944
sg3690
I1183
sg3691
I751
sg3692
I3162
sg3693
I997
sg3694
I98
sg3695
I1277
sg3696
I1940
sg3697
I2481
sS'T'
I588
sg3698
I759
sg3699
I2360
sg3700
I540
sg3701
I715
sg3702
I1089
sg3703
I2409
sg3704
I1807
sg3705
I1436
sg3706
I3516
sg3707
I1584
sg3708
I1433
sg3709
I542
sg3710
I467
sg3711
I645
sg3712
I1793
sg3713
I3758
sg3714
I1879
sg3715
I1666
sg3716
I469
sg3717
I2566
sg3718
I2290
sg3719
I1959
sg3720
I401
sg3721
I2319
sg3722
I3476
sg3723
I1868
sg3724
I2817
sg3725
I784
sg3726
I3900
sg3727
I2105
sg3728
I2777
sg3729
I575
sg3730
I2239
sg3731
I3478
sg3732
I420
sg3733
I1882
sg3734
I1942
sg3735
I710
sg3736
I2578
sg3737
I3429
sg3738
I1239
sg3739
I3599
sg3740
I1501
sg3741
I1567
sg3742
I3633
sg3743
I1964
sg3744
I1174
sg3745
I1721
sg3746
I2119
sg3747
I2597
sS'r'
I1828
sg3748
I3316
sg3749
I292
sg3750
I1897
sg3751
I1773
sg3752
I373
sg3753
I2851
sg3754
I2281
sg3755
I2836
sg3756
I2387
sg3757
I979
sg3758
I2682
sg3759
I1455
sg3760
I2149
sg3761
I1016
sg3762
I3725
sg3763
I2854
sg3764
I2112
sg3765
I1392
sg3766
I3032
sg3767
I1041
sg3768
I2768
sg3769
I870
sg3770
I3600
sg3771
I3461
sg3772
I3344
sg3773
I2636
sg3774
I188
sg3775
I3268
sg3776
I277
sg3777
I1694
sg3778
I688
sg3779
I3613
sg3780
I2962
sg3781
I3278
sg3782
I68
sg3783
I793
sg3784
I1
sg3785
I1519
sg3786
I2976
sg3787
I914
sg3788
I539
sg3789
I426
sg3790
I723
sg3791
I3735
sg3792
I3423
sg3793
I431
sg3794
I506
sg3795
I2602
sg3796
I712
sg3797
I3861
sg3798
I2170
sg3799
I3526
sg3800
I3399
sg3801
I989
sg3802
I3392
sg3803
I38
sg3804
I362
sg3805
I159
sg3806
I3094
sg3807
I2846
sg3808
I3205
sg3809
I2421
sg3810
I3824
sg3811
I2350
sg3812
I821
sg3813
I534
sg3814
I569
sg3815
I1187
sg3816
I1535
sg3817
I727
sg3818
I3622
sg3819
I2083
sg3820
I1426
sg3821
I835
sg3822
I3852
sg3823
I1804
sg3824
I2635
sg3825
I2733
sg3826
I579
sg3827
I2073
sg3828
I1676
sg3829
I1358
sg3830
I3549
sg3831
I3298
sg3832
I2586
sg3833
I499
sg3834
I1300
sg3835
I227
sg3836
I3801
sg3837
I2046
sg3838
I1438
sg3839
I1617
sg3840
I169
sg3841
I1522
sg3842
I3565
sg3843
I584
sg3844
I3499
sg3845
I2949
sg3846
I353
sg3847
I659
sg3848
I20
sg3849
I1927
sg3850
I246
sg3851
I290
sg3852
I16
sg3853
I3675
sg3854
I372
sg3855
I2277
sg3856
I552
sg3857
I3523
sg3858
I3333
sg3859
I186
sg3860
I958
sg3861
I2005
sg3862
I3860
sg3863
I1880
sg3864
I2752
sS'U'
I17
sg3865
I3581
sg3866
I2116
sg3867
I2180
sg3868
I389
sg3869
I2080
sg3870
I3651
sg3871
I3857
sg3872
I3190
sg3873
I1938
sg3874
I1257
sg3875
I301
sg3876
I1040
sg3877
I600
sg3878
I2722
sg3879
I753
sg3880
I3025
sg3881
I2807
sg3882
I2642
sg3883
I3666
ssS'_reverse_mapping'
p3886
(lp3887
g12
ag3784
ag1912
ag924
ag1763
ag3377
ag672
ag1993
ag1996
ag1722
ag3675
ag2010
ag2288
ag1397
ag2429
ag722
ag3852
aS'U'
aS'S'
ag147
ag3848
ag768
ag1717
ag3104
ag1929
ag767
ag1521
ag905
ag2605
aS'a'
ag608
ag2440
ag3095
ag908
ag709
ag2835
ag269
ag3158
ag3803
ag146
ag728
ag715
ag3300
ag734
ag2800
ag2678
ag647
ag1037
ag1882
ag2544
ag2113
ag1409
ag1741
ag391
ag1247
ag3050
aS'y'
ag1227
ag627
ag1446
ag1928
ag1360
ag3326
ag93
ag1223
ag3220
ag209
ag1982
ag3782
ag1060
ag2500
ag3596
ag3682
ag3607
ag319
ag1226
ag2448
ag725
ag207
ag2329
ag799
ag115
ag3016
ag2495
ag891
ag3650
ag2418
ag1175
ag794
ag907
ag1373
ag1831
ag1961
ag2966
ag532
ag2886
ag2290
ag1412
ag3694
ag2540
ag2238
ag1939
ag3608
ag569
ag2378
ag1648
ag3053
ag2694
ag1292
ag2721
ag1425
ag2184
ag2052
ag1506
ag704
ag3325
ag1574
ag2783
ag756
ag1104
ag2842
ag2248
ag3543
ag2420
aS'A'
ag3344
ag2640
ag2573
ag3310
ag928
ag3451
ag2283
ag2406
ag255
ag142
ag713
ag3248
ag1145
ag2119
ag2811
ag599
ag3076
ag1444
ag1468
ag2502
ag2772
ag739
ag697
ag1796
ag1042
ag2645
ag2081
ag2003
ag3503
ag1825
ag3505
ag2993
ag1243
ag2271
ag3805
ag3457
ag2305
ag1976
ag2854
ag251
ag1089
ag770
ag829
ag1304
ag3840
ag1910
ag1079
ag1862
ag956
ag73
ag2777
ag1447
ag2327
ag2557
ag2230
ag3127
ag1559
ag372
ag583
ag38
ag1828
ag3859
ag2225
ag3774
ag121
ag2092
ag1812
ag1050
ag640
ag792
ag2416
ag1734
ag2412
ag2174
ag1374
ag3267
ag112
ag964
ag2220
ag458
ag2538
ag3333
ag633
ag1908
ag2089
ag421
ag389
ag2102
ag3490
ag117
ag1502
ag3679
ag1314
ag3328
ag2044
ag3058
ag355
ag594
ag168
ag869
ag1281
ag877
ag3835
ag1613
ag2789
ag128
ag641
ag942
ag815
ag1280
ag1422
ag1434
ag2665
ag2768
ag2106
ag3627
ag2292
ag1203
ag1590
ag1396
ag1639
ag3850
ag698
ag1394
ag2987
ag989
ag741
ag846
ag2221
ag3017
ag2990
ag967
ag417
ag826
ag3683
aS'9'
ag983
ag692
ag899
ag832
ag3456
ag449
ag2947
ag3420
ag813
ag3578
ag358
ag2773
ag1819
ag3398
ag982
ag3208
ag3776
ag2493
ag480
ag2585
ag1062
ag395
ag2582
ag3670
ag3081
ag481
ag3337
ag330
ag282
ag3851
ag3010
ag3749
ag1537
ag2138
ag873
ag432
ag3354
ag64
ag223
ag2194
ag3875
ag1379
ag2693
ag3643
ag18
ag1168
ag2214
ag1463
aS's'
ag2074
ag1184
ag1276
ag3179
ag2644
ag304
ag1966
ag3304
ag3450
ag2323
ag2891
ag2638
ag955
ag3171
ag3573
ag675
ag2781
ag247
ag3106
ag3098
ag1343
ag2579
ag658
ag2339
ag1567
ag1766
ag3012
ag3169
ag376
ag428
ag2960
ag1009
ag2031
ag1558
ag812
ag2985
ag2955
ag870
ag327
ag671
ag170
ag1745
ag2264
ag3846
ag788
ag3443
ag1986
ag3331
ag3635
ag1228
ag1784
aS'd'
ag3804
ag2486
ag1887
ag2618
ag290
ag2037
ag2508
ag155
ag3449
ag1799
ag3854
ag3752
ag674
ag383
ag42
ag3626
ag630
ag2219
ag3145
ag1362
ag19
ag1146
ag3338
ag2591
ag2118
ag1273
ag189
ag3868
ag644
ag3500
ag510
ag3071
ag1877
ag669
ag1195
ag2491
ag2542
ag453
ag2584
ag3720
ag1094
ag2507
ag37
ag1757
ag3529
ag2310
ag1150
ag1224
ag526
ag2263
ag3400
ag2634
ag2367
ag861
ag1632
ag3120
ag3405
ag892
ag3732
ag1743
ag1844
ag2764
ag2948
ag2615
ag3789
ag3116
ag1123
ag551
ag27
ag3793
ag363
ag2856
ag3161
ag2816
ag1051
ag3303
ag3392
ag2396
ag220
ag1415
ag1330
ag614
ag2042
ag33
ag1942
ag1829
ag2075
ag3647
ag2747
ag2421
ag80
ag2672
ag125
ag2107
ag2574
ag2023
ag274
ag2126
ag324
ag3639
ag2312
ag1053
ag3485
ag2379
ag2033
ag3710
ag3262
ag3716
ag2761
ag1270
ag3585
ag1056
ag198
ag1808
ag1102
ag2702
ag62
ag2336
ag2112
ag1032
aS'4'
ag3261
ag634
ag226
ag2246
ag3594
ag1126
ag97
ag1393
ag562
ag505
ag2114
ag1583
ag2619
ag2471
ag1523
ag3458
ag3833
ag912
ag1881
ag1835
ag2509
ag752
ag172
ag3794
ag3293
ag940
ag3431
ag3242
ag328
ag3330
ag1132
ag379
ag2146
ag1080
ag1853
ag260
ag3146
ag2328
ag416
ag1148
ag1244
ag2082
ag98
ag1923
ag414
ag2991
ag238
ag2964
ag2360
ag2206
ag2799
ag3813
ag1841
ag2262
ag1823
ag1957
ag3788
ag3700
ag1744
ag3709
ag2388
ag3688
ag3516
ag1699
ag2272
ag39
ag1274
ag3438
ag2530
ag3856
ag1211
ag993
ag1067
ag823
ag164
ag2813
ag2193
ag1046
ag1305
ag2062
ag1027
ag1180
ag92
ag1934
ag3164
ag2022
ag3814
ag1430
ag1238
ag2988
ag2804
ag2751
ag3729
ag3059
ag2154
ag1719
ag3826
ag2095
ag2594
ag1077
ag2882
ag3843
ag843
ag2422
ag2933
aS'T'
ag342
ag3514
ag141
ag914
ag2895
ag968
ag1141
ag3229
ag1002
ag1014
ag2408
ag3877
ag2577
ag496
ag693
ag343
ag841
ag2041
ag2350
ag3189
ag791
ag1772
ag1868
ag447
ag3460
ag1254
ag957
ag1832
ag2850
ag3173
ag2736
ag1367
ag682
ag1166
ag3204
ag2297
ag3551
ag413
ag1272
ag3422
ag529
ag2884
ag1041
ag3203
ag2191
ag2637
ag2650
ag1192
aS'R'
ag2758
ag1049
ag3577
ag3128
aS'-'
ag2065
ag2232
ag3711
ag3362
ag2304
ag1326
ag750
ag1139
ag1081
ag354
ag2931
ag2497
ag2805
ag3188
ag3291
ag2296
ag3847
ag3645
ag1915
ag898
ag1701
ag1931
ag2195
ag2906
ag974
ag2566
ag3092
ag2456
ag1691
ag512
ag380
ag662
ag831
ag1723
ag390
ag1131
ag620
ag1144
ag123
ag1604
ag2760
ag1779
ag2690
ag3474
ag1770
ag3778
ag568
ag2617
ag3218
ag3363
ag2843
ag2374
ag1234
ag326
ag2564
ag2716
ag106
ag1454
ag751
ag1109
ag1025
ag2043
ag180
ag2571
ag810
ag2595
ag1208
ag3735
ag256
ag3796
ag992
ag1753
ag3701
ag3445
ag811
ag3467
ag2258
ag2299
ag2820
aS'J'
ag3790
ag3102
ag3290
ag3589
ag3817
ag1814
ag1010
ag366
ag2165
ag194
ag2091
ag2981
ag646
ag1670
ag2977
ag624
ag1241
ag1004
ag3572
ag3636
ag793
ag1431
ag2687
ag2918
ag2267
ag2953
ag995
ag370
ag3691
ag1943
ag3879
ag2186
ag1319
ag2806
ag2961
ag167
ag3698
ag663
ag790
ag1020
ag2937
ag1541
ag1179
ag2949
ag609
ag2411
ag948
ag2739
ag712
ag1377
ag3206
ag1493
ag313
ag1310
ag3083
ag656
ag1856
ag1016
ag2200
ag2959
ag1792
ag3725
ag1609
ag46
ag85
ag1660
ag65
ag345
ag1469
ag999
ag3783
ag68
ag2142
ag1936
ag1612
ag987
ag933
ag1093
ag784
ag1400
ag409
ag1438
aS'e'
ag1864
ag1994
ag2139
ag3253
ag1787
ag3020
ag2707
ag1720
ag2606
ag2216
ag852
ag2983
ag1185
ag2819
ag688
ag3812
ag1683
ag2372
aS'5'
ag1666
ag2213
ag3630
ag3202
ag1477
ag1894
ag3661
ag2141
ag120
ag2998
ag3821
ag157
ag3359
ag3249
ag2177
ag201
ag2430
ag2188
ag1644
ag748
ag1456
ag1860
aS'g'
ag3565
ag779
ag1317
aS'i'
ag2742
ag1328
ag1084
ag3041
ag1252
ag1687
ag1576
ag1176
ag685
ag2926
ag3043
ag3657
ag292
ag972
ag308
ag1738
ag1054
ag2504
ag3769
ag1421
ag1413
ag1735
ag1055
ag467
ag2137
ag364
ag23
ag2150
ag702
ag691
ag3487
ag3212
ag1090
ag3067
ag2229
ag1324
ag1161
ag3609
ag2300
ag3597
ag1380
ag1627
ag1260
ag3611
ag839
ag2973
ag1021
ag2496
ag2302
ag2281
ag979
ag1187
ag944
ag1851
ag3593
ag3601
ag3588
ag3669
ag1097
ag1214
ag2929
ag3448
ag3787
ag1870
ag2894
ag1370
ag2896
ag2952
ag339
ag1133
ag3388
ag773
ag2748
ag3232
ag55
ag635
ag3507
ag541
ag1285
ag1460
ag293
ag1198
ag506
ag1768
ag923
ag936
ag729
ag309
ag2791
ag3561
ag1449
ag249
ag3689
ag3501
ag332
ag2514
ag1988
ag800
ag3430
ag542
ag2932
ag1534
ag2550
ag283
ag442
ag901
ag3860
ag3227
ag471
ag1893
ag2974
ag626
ag495
ag893
ag3094
ag1258
ag3447
ag2808
ag761
ag3477
ag258
ag2158
ag3289
ag2930
ag547
ag820
ag1235
ag3757
ag2798
ag539
ag887
ag1178
ag2315
ag3649
ag625
ag397
ag1125
ag3801
ag3174
ag2124
ag2235
ag2526
ag2025
ag1433
ag2436
ag3693
ag3241
ag1284
ag365
ag2087
ag2562
ag1820
ag3129
ag1667
ag273
ag3378
ag2708
ag3257
ag2549
ag2426
ag917
ag3662
ag489
ag1269
ag3761
ag1542
ag1221
ag3209
ag648
ag2763
ag1760
ag208
ag1350
ag3604
ag1497
ag2265
ag1307
ag3121
ag1492
ag2602
ag131
ag1333
ag272
ag3230
ag407
ag3478
ag3168
ag1990
ag3876
ag3767
ag1378
ag2878
ag2291
ag2356
ag524
ag1336
ag1997
ag2688
ag1509
ag2614
ag2266
ag257
ag3346
ag1601
ag585
ag1575
ag1083
ag79
ag1515
ag3345
ag3404
ag2936
ag783
ag1167
ag2148
ag2317
ag47
ag1289
ag2189
ag502
ag3283
ag737
ag2073
ag1369
ag2750
ag3590
ag1795
ag988
ag214
ag3651
ag610
ag129
ag1732
ag1919
ag1679
ag2313
ag1264
ag3702
ag3452
ag2441
ag3015
ag3001
ag1033
ag2215
ag2217
ag1259
ag2459
ag2686
ag909
ag3685
ag2133
ag322
ag1361
ag2018
ag1320
ag3210
ag2453
ag2839
ag520
ag3035
ag2357
ag2017
ag1661
ag2394
ag1602
ag217
ag1122
ag2234
ag1462
ag1395
ag2084
aS'8'
ag229
ag3587
ag1403
ag331
ag1902
ag705
ag628
ag1190
ag1805
aS't'
ag1061
ag329
ag1522
ag2160
ag3125
ag809
ag586
ag58
ag3479
ag2035
ag1414
ag3610
ag834
ag2616
ag1926
ag730
ag806
ag1634
ag2900
ag561
aS'c'
ag2009
ag3428
ag1204
ag2749
ag2643
ag1697
ag1899
ag549
ag588
ag2038
ag902
ag3472
ag2039
ag602
ag1736
ag2700
ag2151
ag1907
ag2873
ag3744
ag3336
ag2897
ag265
ag1708
ag719
ag393
ag1331
ag838
ag3690
ag3079
ag2827
ag1695
ag3815
ag245
ag2626
ag2414
ag138
ag2980
ag2838
ag947
ag2621
ag1659
ag1846
ag3139
ag2437
ag3473
ag2846
ag2237
ag72
ag1761
ag1771
ag1491
ag296
ag1938
ag1582
ag1301
ag1624
ag1338
ag1278
ag827
ag34
ag1620
ag301
ag3552
ag2581
ag937
ag436
ag3525
ag2701
ag1392
ag740
ag601
ag1802
ag680
ag2627
ag2855
ag1115
ag311
ag2738
ag1088
ag3231
ag3508
ag1026
ag666
ag3738
ag2610
ag925
ag3579
ag3334
ag32
ag74
ag2307
ag651
ag463
ag637
ag96
ag1737
ag320
ag1916
ag857
ag425
ag593
ag3874
ag984
ag677
aS'I'
ag1827
ag3074
ag3580
ag1809
ag1914
ag567
ag2358
ag3524
ag1312
ag830
ag1325
ag1202
ag930
ag2746
ag708
ag2020
ag3695
ag531
ag2257
ag1861
ag3546
ag749
aS'6'
ag819
aS'p'
aS'm'
ag3425
ag3060
ag801
ag3531
ag40
ag2492
ag2695
ag374
ag2743
ag443
ag1911
ag2776
ag2887
ag3834
ag1563
ag244
ag3625
ag2642
ag3656
ag2434
ag3213
ag1968
ag969
ag108
ag3341
ag3307
ag998
ag242
ag3143
ag305
ag2611
ag3178
ag1606
ag3134
ag1592
ag922
ag1466
ag1376
ag1867
ag3648
ag279
ag77
ag716
ag1618
ag1164
ag836
ag1951
ag1249
ag1486
ag2666
ag2415
ag3394
ag1206
ag1764
ag262
ag3486
ag2622
ag2404
ag3412
ag2578
ag1267
ag2547
ag1526
ag323
ag2196
ag2451
ag2269
ag385
ag21
ag1621
ag3298
ag3829
ag1605
ag854
ag2000
ag3599
ag1681
ag953
ag84
ag461
ag2289
ag2844
ag3681
ag361
ag234
ag1733
ag2704
ag1363
ag2080
ag1958
ag1689
ag777
ag451
ag1728
ag929
ag50
ag271
ag1789
ag3207
ag2371
ag3384
ag550
ag842
ag3089
ag1288
ag3765
ag3570
ag1019
ag2548
ag2957
ag1048
ag1391
ag2127
ag2589
ag2849
ag231
ag2740
ag1859
ag2599
ag1306
ag2121
ag1248
ag853
ag3621
ag1470
ag2620
ag2192
ag59
ag787
ag1608
ag1200
ag3122
ag3423
ag1119
ag1857
ag2067
ag2173
ag2889
ag1797
ag3820
ag1085
ag3605
ag1731
ag2306
ag1074
ag51
ag3708
ag753
ag237
ag3705
ag1086
ag3838
ag895
ag2534
ag3147
ag1309
ag548
ag3052
ag2476
ag2363
ag2870
ag191
ag454
ag3659
ag3254
ag3259
ag2431
ag885
ag3759
ag639
ag3266
ag1368
ag1702
ag1128
ag1210
ag488
ag951
ag2516
ag178
ag2946
ag1987
ag3568
ag1266
ag1263
ag2860
ag1615
ag3622
ag196
ag1937
ag3348
ag2477
ag592
ag3646
ag1116
ag1216
ag1589
ag807
ag1181
ag2546
ag763
ag1169
ag3286
ag1450
ag1710
ag375
ag3318
ag2766
ag2837
ag1402
ag1250
ag667
ag3194
ag552
ag116
ag3740
ag1512
ag3130
ag1631
aS'7'
ag2134
ag2830
ag686
ag1501
ag1217
ag1426
ag1556
ag2424
ag2660
ag3664
ag476
ag233
ag3533
ag3785
ag1375
ag3103
ag3841
ag2007
ag3223
ag2324
ag1704
ag2202
ag2054
ag3030
ag514
ag2803
ag437
ag2308
ag2433
ag3816
ag3263
ag2498
ag1726
ag3558
ag1435
ag1110
ag2153
ag3018
ag60
ag1952
ag723
ag2270
ag2199
ag3172
ag1496
ag3110
ag2876
ag267
ag2703
ag2649
ag252
ag2554
ag3317
ag2069
ag2454
ag275
ag2881
ag2015
ag1869
ag264
ag886
ag3741
ag2910
ag2123
ag2094
ag2775
ag1596
ag1011
ag710
ag3480
ag3358
ag3070
ag618
ag668
ag1840
ag1232
ag613
ag833
ag3707
ag536
ag3277
ag798
ag2858
ag727
ag1329
ag577
ag1489
ag2320
ag3093
ag2734
ag3332
ag1017
ag3154
ag500
ag3349
ag2714
ag3339
ag285
ag2717
ag619
ag817
ag179
ag2370
ag847
ag1275
ag485
ag2923
ag2726
ag2681
ag1945
ag3603
ag3839
ag3665
ag2829
ag268
ag2786
ag484
ag673
ag2519
ag802
ag1886
ag1388
ag1588
ag1107
ag2348
ag127
ag316
ag913
ag444
ag3003
ag335
ag3054
ag781
ag2911
ag679
ag736
ag3426
ag2782
ag3598
ag3049
ag3055
ag2109
ag1322
ag1971
ag1064
ag2568
ag1788
ag1749
ag2712
ag1925
ag2457
ag772
ag2833
ag1752
ag1078
ag3190
ag855
ag3100
ag1696
ag654
ag3715
ag665
aS'u'
ag2209
ag134
ag2888
ag3226
ag560
ag3033
ag3638
ag3828
ag3644
ag66
ag1663
ag3297
ag3077
ag1152
ag1540
ag2001
ag82
ag2899
ag344
ag2135
ag2159
ag3617
ag2727
aS'C'
ag1404
ag3777
ag2111
ag2286
ag3096
ag1640
ag572
ag1611
ag351
ag2481
ag2231
ag1138
ag1535
ag1920
ag760
ag2479
ag3301
ag2963
ag543
ag762
ag573
ag1321
aS'f'
ag695
ag1058
ag2463
ag2076
ag1646
ag3745
ag3036
ag2904
ag420
ag758
ag2488
ag3117
ag212
ag2696
ag966
ag2796
ag3468
ag3251
ag1283
ag446
ag469
ag298
ag2995
ag448
ag87
ag687
ag2965
ag2395
ag3442
ag1585
ag2344
ag176
ag2343
ag3542
ag1884
ag943
ag1742
ag3453
ag1399
ag3063
ag2744
ag3513
ag1215
ag403
ag3236
ag3287
ag976
ag888
ag743
ag862
ag497
ag3416
ag2175
ag1349
ag338
ag2558
ag867
ag3751
ag1277
ag1690
ag2944
ag2705
ag3152
ag996
ag1436
ag297
ag3014
ag1316
ag3489
ag1607
ag2710
ag2780
ag2892
ag3397
ag3684
ag240
ag3288
ag3712
ag3260
ag478
ag276
ag927
ag1652
ag1879
ag882
ag2529
ag805
ag1579
ag3823
ag2273
ag2149
ag3704
ag2207
ag564
ag2868
ag3595
ag1482
ag2862
ag3199
ag3360
ag2903
ag2181
ag2667
ag516
ag636
ag2654
ag980
aS'W'
ag3315
ag3235
ag954
ag3245
aS'r'
ag2880
ag1268
ag607
ag29
ag3137
ag1172
ag1662
ag632
ag537
ag2116
ag1693
ag2527
ag1118
ag3502
ag44
ag2108
ag1347
ag1790
ag774
ag3666
ag849
ag2059
ag3024
ag2673
ag2982
ag169
ag350
ag2201
ag1643
ag2914
ag795
ag2521
ag2280
ag958
ag3571
ag769
ag143
ag1196
ag3496
ag3723
ag3271
ag2383
ag3535
ag1401
ag1793
ag2483
ag3183
ag1740
ag1143
ag3240
ag3714
ag3863
ag1163
ag3733
ag378
ag1057
ag1550
ag2233
ag3544
ag2249
ag1758
ag1956
ag1775
ag3631
ag1826
ag2872
ag1676
ag1386
ag3750
ag2922
ag3022
ag3123
ag3281
ag498
ag2874
ag45
ag1933
ag1888
ag193
ag334
ag1692
ag3534
ag384
ag3434
ag1487
ag2068
ag2792
ag558
ag3432
ag2247
ag137
ag2978
aS'3'
ag622
ag1568
ag1822
ag1420
ag3113
ag3849
ag2469
ag2853
ag3057
ag1930
ag1117
ag2559
ag1941
ag41
ag3356
ag1622
ag3873
ag3153
ag3696
ag3559
ag3734
ag2218
ag2560
ag2625
ag2386
ag3515
ag199
ag1458
ag1524
ag2924
ag1505
ag2989
ag883
ag2533
ag1418
ag3440
ag1213
ag3719
ag2689
ag1673
ag1095
ag3269
ag3743
ag1442
ag2572
ag2795
ag57
ag2601
ag2759
ag2427
ag1858
ag475
ag3323
ag3201
ag2737
ag961
ag3347
ag2027
ag2525
ag1880
ag353
ag197
ag1794
ag3653
ag1685
ag2016
ag2720
ag1242
ag3042
ag1359
ag2072
ag3680
ag3482
ag2917
ag1756
ag2253
ag3406
ag2609
ag1594
ag2034
ag2398
ag3632
ag1294
ag3861
ag2097
ag1031
ag2784
ag2100
aS'N'
ag2569
ag1629
ag2282
ag2512
ag2409
ag932
ag2718
ag3574
ag3553
ag1039
ag3200
ag1655
ag1475
ag1432
ag321
ag2403
ag3195
ag1584
ag1950
ag341
ag2239
ag1909
ag1047
ag99
ag920
ag1483
ag2086
ag3408
ag1040
ag2624
ag2908
ag3633
ag759
ag1069
ag105
ag3837
ag1156
ag456
ag2078
ag1035
ag3296
ag3592
ag2567
ag1253
ag1891
ag1451
ag1063
ag1382
ag659
ag49
ag2674
ag3613
ag981
ag1389
ag3219
ag1453
ag1308
ag700
ag2941
ag422
ag3343
ag3413
ag3827
ag714
ag2563
ag1407
ag2172
ag1519
ag2680
ag3869
ag2319
ag236
ag3819
ag1480
ag3663
ag2668
ag1108
ag1500
ag2608
ag1003
ag1948
ag2241
ag2755
ag171
ag3407
ag3536
ag1205
ag2522
ag3655
ag2373
ag69
ag1806
ag1999
ag281
ag3727
ag824
ag2836
ag2322
ag401
ag2646
ag2331
ag3764
aS'w'
ag1518
ag2815
ag3866
ag2278
ag1906
ag3746
ag3427
ag1358
ag606
ag2245
ag153
ag587
ag2147
ag3466
ag228
ag2452
ag503
ag1959
ag1364
ag1581
ag2334
ag2732
ag1256
ag1762
ag2129
ag681
ag2828
ag2401
ag1473
ag487
ag2647
ag2161
ag357
ag889
ag3575
ag3760
ag660
ag2445
ag3403
ag2771
aS'o'
ag2482
ag2970
ag1531
ag289
ag2565
ag508
ag2767
ag2190
ag2115
ag3056
ag152
ag803
ag2935
ag382
ag3114
ag3798
ag3009
ag294
ag689
ag1628
ag1134
ag511
ag470
ag2365
ag3484
ag3867
ag1785
ag2204
ag3025
ag181
ag3051
ag3686
ag1538
ag288
ag2208
ag935
ag1546
ag2715
ag1549
ag1417
ag130
ag435
ag2077
ag477
ag1287
ag1024
ag173
ag3021
ag2004
ag2468
ag336
aS'b'
ag166
ag949
ag631
ag1921
ag3584
ag3340
ag1992
ag2180
ag3013
ag460
ag1965
ag1197
ag1547
ag2478
ag3498
ag3511
ag2927
ag844
ag1706
ag643
ag466
ag104
ag1445
ag3437
ag1183
ag360
ag2612
ag2351
ag3483
ag2375
ag2347
ag3023
ag3730
ag2925
ag2442
ag522
ag941
ag664
ag3667
ag2455
ag2228
ag2623
ag2093
ag1356
ag2368
ag890
ag43
ag3387
ag1824
ag2030
ag111
ag3444
ag368
ag3099
ag963
ag3031
ag1532
ag3032
ag1315
ag2377
ag563
ag2362
ag1668
ag479
ag1494
ag1657
ag1257
ag2002
ag3075
ag1366
ag3855
ag515
ag2787
ag2976
ag3754
ag2975
ag1265
ag306
ag160
ag3105
ag2656
ag2136
ag2984
ag3718
ag3576
ag1641
ag2019
ag2801
ag1416
ag302
ag1311
ag1580
ag2719
ag261
ag431
ag2480
ag804
ag1303
ag2841
ag2354
ag2580
ag3393
ag1461
ag133
ag921
ag2105
ag1895
ag814
ag202
ag1455
ag1036
ag492
ag3721
ag545
ag906
ag3555
ag3107
ag2198
ag2979
ag406
ag2597
ag1099
ag2489
ag26
ag2706
ag3369
ag876
ag1291
ag219
ag1940
ag1684
ag2788
ag1472
ag507
ag340
aS'2'
ag1560
ag1298
ag3091
ag3564
ag1838
ag2490
ag581
ag3811
ag2006
ag2185
ag1636
ag61
ag2128
ag973
ag394
ag1194
ag2277
ag3699
ag2962
ag649
ag2691
ag765
ag148
ag3629
ag2661
ag280
ag557
ag604
ag1972
ag2013
ag2756
ag3381
ag3320
ag1866
ag3418
ag1071
ag582
ag1995
ag1130
ag2276
ag1471
ag3284
ag1759
ag2603
ag3756
ag455
ag1153
ag2182
ag1344
ag3006
ag3424
ag1182
ag2014
ag1883
ag2699
ag858
ag733
ag2723
ag1896
ag1142
ag2443
ag1111
ag3429
ag1034
ag1678
ag1245
ag3703
ag3039
ag3007
ag939
ag1591
ag1219
ag1124
ag1836
ag1043
ag3475
ag2330
ag3090
ag3809
ag1225
ag2066
ag2790
ag415
ag711
ag1935
ag67
ag1949
ag1551
ag3215
ag2679
ag2341
ag156
ag3004
ag408
ag2462
ag3228
ag3250
ag3126
ag3368
ag2224
ag1815
ag523
ag2346
ag2461
ag2464
ag367
ag3085
ag2382
ag2972
ag359
ag2825
ag2049
ag1903
ag3616
ag2275
ag2460
ag3522
ag3155
ag1924
ag1406
ag3415
ag2731
ag185
ag1872
ag2592
ag2222
ag2243
ag589
ag970
ag2176
ag3133
ag2586
ag2523
ag2684
ag3606
ag2005
ag2996
ag1967
ag3697
ag392
ag1105
ag2677
ag880
ag615
ag1647
ag2131
ag3087
ag2596
ag1878
ag2662
ag2511
ag2355
ag3272
ag617
ag565
ag452
ag429
ag1991
ag3005
ag3111
ag1419
ag2261
ag2096
ag3211
ag3115
ag1339
ag2164
ag978
ag570
ag971
ag3186
ag1271
ag1355
ag3109
ag1598
ag369
ag1623
ag3582
ag1714
ag3628
ag2692
ag1913
ag1340
ag2531
ag177
ag3274
ag3044
ag1635
ag2890
ag1839
ag1352
ag1327
ag2817
ag1671
ag1747
ag840
ag2950
ag2387
ag3410
ag2419
ag3678
ag1299
ag1555
ag2294
ag3624
ag2125
ag1686
ag518
ag738
ag3166
ag2869
ag2847
ag424
ag2144
ag1513
ag30
ag3380
ag732
ag946
ag2047
ag472
ag31
ag2090
ag3717
ag2024
ag1112
ag3084
ag468
ag2840
ag352
ag1536
aS"'"
ag1725
ag1561
ag3239
ag3736
ag1578
ag1905
ag1603
ag1746
ag1199
ag3048
ag3064
ag3832
ag1511
ag509
ag2893
ag3463
ag3567
ag3268
ag2859
ag2517
ag1765
ag2632
ag3747
ag1963
ag3279
ag1520
ag3086
ag3795
ag2631
ag3316
ag239
ag63
ag2629
ag1476
ag3658
ag1543
ag1656
ag3364
ag3435
ag2590
ag2295
ag1807
ag786
ag3243
ag1898
ag1282
ag1637
ag3141
ag2851
ag3674
ag54
ag1517
ag1614
ag3488
ag2593
ag3177
ag1529
ag2071
ag158
ag2474
ag3824
ag3773
ag2390
ag1781
ag2570
ag3436
ag3034
ag3882
ag266
ag2556
ag3591
ag2877
ag1220
ag2663
ag286
ag1750
ag1680
ag3660
ag404
ag1818
ag3047
ag845
ag796
ag2774
ag501
ag1136
ag2967
ag371
ag785
ag3350
ag387
ag2826
ag3187
ag1065
ag860
ag584
ag186
ag2063
ag3401
ag3192
ag1411
ag2733
ag521
ag1973
ag3464
ag945
ag423
ag3758
ag900
ag3357
ag2060
ag2210
ag161
ag778
ag1427
ag3642
ag3135
ag1527
ag2635
ag3244
ag1975
ag1773
ag183
ag3581
ag3492
ag1548
ag1147
ag3193
ag735
ag2528
ag71
ag2045
ag653
ag2268
ag1018
ag3112
ag430
ag2968
ag2729
ag3170
ag1398
ag1335
ag2664
ag1296
ag1514
ag3523
ag2485
ag3878
ag188
ag965
ag2423
ag204
ag1484
ag3618
ag3557
ag3101
ag3321
ag2958
ag3825
ag1711
ag1467
ag3353
ag2170
ag3329
ag3038
ag1030
ag863
ag1490
ag1044
ag3322
ag3222
ag2676
ag2352
ag3409
ag402
ag3530
ag1452
ag3864
ag904
ag576
ag3216
ag3668
ag2340
ag2520
ag2724
ag2920
ag2366
ag184
ag3132
ag2902
ag3066
ag190
ag2140
ag3768
ag1955
ag3138
ag1137
ag3481
ag850
ag1918
ag2260
ag1633
ag3728
ag205
ag1566
ag598
ag465
ag611
ag3285
ag3148
ag766
ag2506
ag1073
ag2197
ag462
ag2110
ag1586
ag493
ag3175
ag597
ag1983
ag2458
ag3097
ag1171
ag1100
ag1533
ag1715
ag2651
ag1162
ag482
ag2391
ag2875
ag3881
aS'1'
ag938
ag398
ag975
ag1901
ag246
ag1351
ag1346
ag1372
ag3724
ag1191
ag494
ag1005
ag540
ag915
ag1989
ag325
ag1854
ag410
ag318
ag2883
ag3361
ag2513
ag1664
ag1834
ag1863
ag3165
ag2162
ag3755
ag3233
ag1428
ag1345
ag3493
ag1597
ag3246
ag291
ag381
ag90
ag3807
ag1774
ag1353
ag2058
ag1498
ag3753
ag3563
ag2765
ag3763
ag1855
ag683
ag3519
ag871
ag684
ag2064
ag1149
ag1465
ag1817
ag2905
ag1082
ag1408
ag347
ag1429
ag222
ag3528
ag2163
ag206
ag1448
ag3672
ag3225
ag3142
ag3402
ag2143
ag3324
ag3677
ag400
ag2864
ag2342
ag797
ag1979
ag83
ag203
ag645
ag2132
ag1748
ag1645
ag1776
ag1816
ag638
ag24
ag3541
ag3623
ag1510
ag3280
ag3088
ag459
ag3510
ag3527
ag1557
ag315
ag1800
ag2487
ag2561
ag3654
ag2754
ag528
ag388
ag776
ag1630
ag3652
ag720
ag2537
ag3374
ag2879
ag2205
ag1713
ag1348
ag2575
ag952
ag742
ag990
ag119
ag764
ag2735
ag3351
ag2029
ag1371
ag1922
ag2178
ag2532
ag2956
ag916
ag1600
ag724
ag566
ag2600
ag411
ag2822
ag3520
ag3335
ag2683
ag259
ag2364
ag3845
ag2240
ag3342
ag48
ag1564
ag175
ag2353
ag2050
ag553
ag109
ag1300
ag2447
ag616
ag3780
ag1070
ag2157
ag3614
ag445
ag1318
ag439
ag1587
ag818
ag2613
ag2494
ag2467
ag114
ag2885
ag3786
ag3182
ag1850
ag2928
ag187
ag1599
ag1528
ag337
ag3547
ag3365
ag2384
ag1798
ag2274
ag3162
ag1189
ag2539
ag3454
ag2942
ag555
ag70
ag2393
ag694
ag144
ag2997
ag2284
ag1874
ag89
ag2048
ag1830
ag721
ag1001
ag2438
ag1782
ag3476
ag2653
ag2259
ag1381
ag3673
ag1474
ag590
ag1981
ag3306
ag919
ag3373
ag124
ag1876
ag789
ag126
ag1625
ag3880
ag2913
ag527
ag224
ag2079
ag3395
ag2669
ag3766
ag3586
ag221
ag2730
ag287
ag881
ag2934
ag2055
ag1804
ag2484
ag1917
ag747
ag1845
ag3372
ag284
ag1619
ag2793
ag678
ag1904
ag2021
ag81
ag88
ag1038
ag3159
ag903
ag248
ag2745
ag1665
ag2652
ag2446
ag1457
ag1251
ag2659
ag2227
ag499
ag1006
ag1479
ag2083
ag3389
ag2428
ag1160
ag3495
ag362
ag1769
ag2794
ag307
ag3028
ag3583
ag1443
ag676
ag701
ag1848
ag533
ag864
ag3198
ag28
ag3214
ag1045
ag1562
ag1593
ag3029
ag2470
ag3806
ag1675
ag2630
ag225
ag3278
ag1786
ag1705
ag591
ag1571
ag655
ag3620
ag3537
ag2167
ag3641
ag1653
ag1261
ag605
ag2709
ag2053
ag556
ag2515
ag1504
ag213
ag2088
ag3295
ag3518
ag2675
ag1440
ag1337
ag1508
ag2244
ag726
ag3299
ag2236
ag135
ag2156
ag2032
ag3040
ag991
ag1029
ag2466
ag2252
ag2845
ag1383
ag2203
ag2636
ag1516
ag1570
ag386
ag2298
ag1754
ag517
ag110
ag2857
ag2901
ag3419
ag210
ag1385
ag3082
ag2752
ag2555
ag211
ag216
ag2011
ag2824
ag3167
ag2576
ag1572
ag3692
ag3494
ag1833
ag165
ag994
ag2287
ag2026
ag911
ag1106
ag2722
ag3526
ag215
ag1013
ag1729
ag2545
ag162
ag2951
ag122
ag2413
ag1626
ag3069
ag2697
ag2821
ag3061
ag1651
ag1791
ag1885
ag2169
ag3872
ag3433
ag118
ag3619
ag3532
ag3566
ag3319
ag3545
ag2641
ag1985
ag1962
ag250
ag3247
ag1165
ag1157
ag3808
ag3294
ag3119
ag243
ag3270
ag554
ag535
ag3264
ag2711
ag910
ag412
ag816
ag2473
ag670
ag513
ag1980
ag2992
ag2242
ag356
ag2337
ag1803
ag959
ag2254
ag2407
ag2698
ag3506
ag3421
ag2120
ag3446
ag718
ag2921
ag2898
ag1970
ag1154
ag1410
ag821
ag2999
ag546
ag1674
ag879
ag3027
ag2810
ag2465
ag2713
ag107
ag2349
ag159
ag3548
ag2785
ag3634
ag2779
ag1441
ag865
ag1669
ag1947
ag3465
ag744
ag1140
ag690
ag868
ag2919
ag377
ag2450
ag3775
ag2994
ag559
ag2301
ag2432
ag1101
ag2444
ag3237
ag2179
ag1642
ag3781
ag1777
ag872
ag2333
ag1114
ag3080
ag1610
ag1481
ag1323
ag1177
ag2309
ag2166
ag2658
ag2553
ag2535
ag1984
ag579
ag300
ag235
ag3417
ag3831
ag1365
ag538
ag1688
ag1076
ag2389
ag918
ag241
ag3469
ag2098
ag3305
ag2852
ag1499
ag2986
ag1677
ag3441
ag1230
ag897
ag3748
ag3302
ag3191
ag950
ag200
ag2943
ag1616
ag3062
ag2598
ag2057
ag2762
ag1703
ag3497
ag3068
ag2255
ag835
ag1751
ag3858
ag1778
ag2607
ag2814
ag2939
ag884
ag346
ag1712
ag2402
ag580
ag1439
ag3772
ag2250
ag3391
ag2909
ag2633
ag3569
ag2536
ag1229
ag652
ag230
ag2940
ag227
ag3371
ag3144
ag1008
ag1694
ag1357
ag1755
ag1892
ag2757
ag3011
ag3000
ag483
ag2863
ag2417
ag3602
ag875
ag2130
ag1387
ag2303
ag1342
ag1964
ag76
ag934
ag2671
ag2587
ag2117
ag1843
ag2051
ag1290
ag1569
ag731
ag474
ag2628
ag859
ag1390
ag2171
ag1617
ag3802
ag154
ag1155
ag2056
ag95
ag1927
ag1810
ag3800
ag2155
ag931
ag2551
ag2725
ag1837
ag1459
ag2061
ag399
ag1739
ag2834
ag253
ag3181
ag3671
ag1015
ag2685
ag2831
ag1103
ag101
ag1724
ag349
ag1072
ag1066
ag1121
ag3792
ag3539
ag571
ag848
ag874
ag703
ag3737
ag2293
ag3399
ag2552
ag2380
ag746
ag3600
ag1113
ag1423
ag1127
ag780
ag396
ag1087
ag2655
ag3366
ag1503
ag3234
ag650
ag426
ag299
ag595
ag623
ag418
ag2770
ag997
ag985
ag3252
ag3470
ag3327
ag2211
ag2945
ag91
ag3771
ag1573
ag3471
ag182
ag2866
ag2028
ag534
ag2399
ag3205
ag2543
ag78
ag2954
ag960
ag1780
ag1577
ag3722
ag2604
ag3731
ag1847
ag2797
ag86
ag2865
ag2256
ag2381
ag3273
ag3265
ag1716
ag3383
ag1978
ag808
ag1193
ag828
ag578
ag657
ag2279
ag544
ag2912
ag3151
ag3844
ag504
ag100
ag56
ag1354
ag1707
ag1530
ag1944
ag3554
ag174
ag1059
ag218
ag3197
ag696
ag2861
ag1222
ag2226
ag3706
ag3008
ag822
ag145
ag136
ag1721
ag22
ag3857
ag1873
ag1649
ag3799
ag3292
ag3509
ag1960
ag3314
ag473
ag1052
ag1565
ag775
ag3019
ag2400
ag3459
ag464
ag3676
ag132
ag3163
ag2036
ag103
ag642
ag3549
ag2145
ag1332
ag192
ag3830
ag782
ag2361
ag1212
ag2251
ag3517
ag2499
ag621
ag894
ag303
ag457
ag600
ag2583
ag596
ag1075
ag2359
ag3842
ag1700
ag574
ag2085
ag1650
ag2915
ag333
ag3550
ag1424
ag3379
ag1842
ag1302
ag2122
ag2657
ag2104
ag2823
ag3865
ag20
ag2099
ag2753
ag1478
ag1954
ag3352
ag3026
ag1255
ag3382
ag1488
ag603
ag1120
ag3355
ag3499
ag1158
ag3037
ag3184
ag3739
ag3770
ag53
ag1485
ag232
ag1875
ag3185
ag1495
ag2101
ag1638
ag1821
ag3176
ag3282
ag2670
ag3779
ag3375
ag1698
ag3312
ag1188
ag3065
ag3131
ag629
ag2818
ag3818
ag612
ag3612
ag3540
ag926
ag706
ag2907
ag2369
ag2916
ag1525
ag3045
ag3742
ag2410
ag2505
ag2969
ag35
ag373
ag1246
ag1207
ag2392
ag490
ag1231
ag745
ag1682
ag94
ag661
ag3396
ag1953
ag2326
ag3870
ag3311
ag1239
ag3640
ag3687
ag1174
ag1767
ag2345
ag1709
ag2168
ag2187
ag1554
ag2338
ag3556
ag2070
ag3883
ag434
ag2807
ag3156
ag314
ag2871
ag3308
ag3046
ag2008
ag3853
ag3276
ag163
ag113
ag52
ag1293
ag254
ag3073
ag3124
ag3256
ag2802
ag1218
ag1672
ag270
ag1801
ag525
ag2335
ag139
ag3180
ag3637
ag3461
ag1865
ag2314
ag2812
ag1507
ag1977
ag2223
ag1012
ag3512
ag1405
ag1209
ag878
ag771
ag755
ag1730
ag3196
ag3390
ag1129
ag1237
ag1539
ag1201
ag1028
ag699
ag3136
ag3275
ag2848
ag3108
ag3411
ag2449
ag530
ag3762
ag151
ag2971
ag2501
ag3414
ag3238
ag440
ag1186
ag754
ag757
ag3791
ag75
ag1544
ag1313
ag707
ag3367
ag491
ag1813
ag3078
ag2588
ag1170
ag825
ag2524
ag3521
ag2639
ag441
ag837
ag3615
ag1023
ag2435
ag1553
ag1727
ag896
ag3713
ag433
ag312
ag1974
ag986
ag3462
ag3118
ag3309
ag1022
ag2332
ag1341
ag1096
ag3160
ag2741
ag3150
ag2385
ag1098
ag3217
ag1871
ag1998
ag1654
ag1334
ag1969
ag102
ag3370
ag2778
ag3255
ag149
ag1068
ag856
ag1464
ag317
ag25
ag1897
ag1007
ag3376
ag150
ag1545
ag1000
ag1783
ag575
ag140
ag3562
ag3836
ag1091
ag3439
ag1595
ag851
ag1900
ag2832
ag1852
ag1849
ag1297
ag2518
ag3224
ag1173
ag348
ag2405
ag3491
ag438
ag2728
ag1932
ag2472
ag977
ag2867
ag3538
ag3810
ag866
ag2012
ag3149
ag2503
ag3313
ag2938
ag1889
ag2425
ag1092
ag277
ag1295
ag2318
ag1279
ag1384
ag2152
ag2285
ag1811
ag1718
ag2475
ag1946
ag195
ag2183
ag310
ag2682
ag263
ag1890
ag1151
ag3822
ag3072
ag486
ag717
ag1135
ag3871
ag3140
ag1159
ag3862
ag3797
ag519
ag2103
ag3002
ag3504
ag3386
ag3258
ag1552
ag36
ag2316
ag2325
ag419
ag1236
ag295
ag405
ag2397
ag2648
ag2809
ag2212
ag2376
ag2769
ag2321
ag1262
ag2439
ag962
ag3221
ag3157
ag1286
ag2040
ag427
ag1437
ag278
ag2541
ag1240
ag3455
ag1658
ag2046
ag1233
ag3560
ag3726
ag2510
ag450
ag2311
ag3385
asbsS'max_document_length'
p3888
I200
sS'_tokenizer'
p3889
ctensorflow.contrib.learn.python.learn.preprocessing.text
tokenizer
p3890
sS'min_frequency'
p3891
I0
sb.