ccopy_reg
_reconstructor
p1
(ctensorflow.contrib.learn.python.learn.preprocessing.text
VocabularyProcessor
p2
c__builtin__
object
p3
NtRp4
(dp5
S'vocabulary_'
p6
g1
(ctensorflow.contrib.learn.python.learn.preprocessing.categorical_vocabulary
CategoricalVocabulary
p7
g3
NtRp8
(dp9
S'_freeze'
p10
I01
sS'_unknown_token'
p11
S'<UNK>'
p12
sS'_support_reverse'
p13
I01
sS'_freq'
p14
ccollections
defaultdict
p15
(c__builtin__
int
p16
tRp17
S'Pussycat'
p18
I1
sS'limited'
p19
I1
sS'45-run'
p20
I1
sS'unlawful'
p21
I1
sS'doubts'
p22
I1
sS'Richland'
p23
I1
sS'colleges'
p24
I2
sS'yellow'
p25
I1
sS'Theresa'
p26
I1
sS'facilities'
p27
I1
sS'protest'
p28
I2
sS'Clippers'
p29
I1
sS'controversial'
p30
I1
sS'aides'
p31
I1
sS'commandos'
p32
I1
sS'Communist'
p33
I1
sS'oldest'
p34
I2
sS'hate'
p35
I2
sS'towns'
p36
I1
sS'relationships'
p37
I1
sS'whose'
p38
I2
sS'Liverpool'
p39
I1
sS'Livingstone'
p40
I1
sS'electricity'
p41
I3
sS'tweet'
p42
I1
sS'poorest'
p43
I1
sS'Marygn'
p44
I1
sS'pensions'
p45
I1
sS'painters'
p46
I1
sS'opener'
p47
I1
sS'Western'
p48
I2
sS'under'
p49
I5
sS'Plague'
p50
I1
sS'sorry'
p51
I1
sS'pride'
p52
I3
sS'sway'
p53
I1
sS'worth'
p54
I1
sS'carried'
p55
I1
sS'Shoot'
p56
I1
sS'League'
p57
I3
sS'compelling'
p58
I1
sS'risk'
p59
I4
sS'tampons'
p60
I1
sS'dollar'
p61
I1
sS'Famed'
p62
I1
sS'Blade'
p63
I1
sS'Boghossian'
p64
I1
sS'every'
p65
I7
sS'viral'
p66
I1
sS'bringing'
p67
I4
sS'school'
p68
I2
sS'basics'
p69
I1
sS'magnate'
p70
I1
sS'molesting'
p71
I1
sS'Campaign'
p72
I2
sS'skills'
p73
I2
sS'fondly'
p74
I1
sS'companies'
p75
I3
sS'solution'
p76
I2
sS'casinos'
p77
I1
sS'Sands'
p78
I1
sS'affect'
p79
I1
sS'freestyling'
p80
I1
sS'Go'
p81
I1
sS'employees'
p82
I2
sS'Paul'
p83
I2
sS'1940s'
p84
I1
sS'budges'
p85
I1
sS'Our'
p86
I1
sS'force'
p87
I2
sS'leaders'
p88
I8
sS'Festival'
p89
I1
sS'warns'
p90
I1
sS'Some'
p91
I2
sS'beginner'
p92
I1
sS'elections'
p93
I2
sS'270'
p94
I1
sS'talks'
p95
I2
sS'second'
p96
I10
sS'estimated'
p97
I1
sS"Shkreli's"
p98
I1
sS'machines'
p99
I1
sS'even'
p100
I3
sS'web-based'
p101
I1
sS'Arizona'
p102
I1
sS'hide'
p103
I1
sS'organisms'
p104
I1
sS'prisons'
p105
I1
sS'Theourt'
p106
I1
sS'Merkel'
p107
I2
sS'Samsung'
p108
I1
sS'spokesman'
p109
I2
sS'Game'
p110
I2
sS'Ones'
p111
I1
sS'Hamilton'
p112
I3
sS'above'
p113
I2
sS'conduct'
p114
I2
sS'Put'
p115
I1
sS'new'
p116
I22
sS'net'
p117
I1
sS'increasing'
p118
I1
sS'ever'
p119
I4
sS'seeks'
p120
I3
sS'told'
p121
I8
sS'specialist'
p122
I1
sS'Varnish'
p123
I1
sS'hero'
p124
I2
sS'men'
p125
I8
sS'Elli'
p126
I1
sS'here'
p127
I2
sS'Pirates'
p128
I1
sS'met'
p129
I6
sS'Taillon'
p130
I1
sS'voter'
p131
I1
sS"'joke'"
p132
I2
sS'active'
p133
I1
sS'Ernest'
p134
I1
sS'100'
p135
I4
sS"aren't"
p136
I1
sS'105'
p137
I2
sS'dry'
p138
I1
sS'ODI'
p139
I1
sS'daughter'
p140
I1
sS'items'
p141
I1
sS'Tuesday'
p142
I13
sS'changed'
p143
I1
sS'jail'
p144
I1
sS'reports'
p145
I3
sS'controversy'
p146
I1
sS'pinning'
p147
I1
sS'Chat'
p148
I1
sS'two-year-old'
p149
I1
sS'analysts'
p150
I1
sS'smoke'
p151
I1
sS'economies'
p152
I1
sS'military'
p153
I3
sS'Alternative'
p154
I1
sS'postponed'
p155
I1
sS'changes'
p156
I1
sS'tackling'
p157
I1
sS'criticism'
p158
I1
sS'cushy'
p159
I1
sS'digitally'
p160
I1
sS'campaign'
p161
I15
sS'City'
p162
I3
sS'Three'
p163
I1
sS'replace'
p164
I1
sS'Behind'
p165
I1
sS'stern'
p166
I1
sS'offi'
p167
I1
sS'Wales'
p168
I1
sS'total'
p169
I3
sS'unit'
p170
I5
sS'opponents'
p171
I1
sS'tween'
p172
I1
sS'spoke'
p173
I1
sS'would'
p174
I14
sS'army'
p175
I1
sS'R-FL'
p176
I1
sS'hospital'
p177
I3
sS'June'
p178
I3
sS"world's"
p179
I3
sS'music'
p180
I3
sS'spike'
p181
I1
sS'survive'
p182
I1
sS'Johanna'
p183
I1
sS'care'
p184
I2
sS'assessment'
p185
I1
sS'until'
p186
I1
sS'supporters'
p187
I2
sS'brings'
p188
I1
sS'proton'
p189
I1
sS'thereng'
p190
I1
sS'award'
p191
I3
sS'hurt'
p192
I1
sS'phone'
p193
I1
sS'defeated'
p194
I1
sS'week-long'
p195
I1
sS'Appleall-street-journalharassmen4'
p196
I1
sS"game's"
p197
I2
sS'casualties'
p198
I2
sS'must'
p199
I3
sS'me'
p200
I2
sS'Delay'
p201
I1
sS'join'
p202
I1
sS'room'
p203
I3
sS'rights'
p204
I1
sS'work'
p205
I3
sS'Lowden'
p206
I1
sS'Pelton'
p207
I4
sS'movies'
p208
I1
sS'obstacle'
p209
I1
sS'Bostelaar'
p210
I1
sS'era'
p211
I6
sS'leaped'
p212
I1
sS'those'
p213
I2
sS'experts'
p214
I2
sS"sequel's"
p215
I1
sS'my'
p216
I4
sS'initial'
p217
I1
sS'Le'
p218
I2
sS'estate'
p219
I1
sS'La'
p220
I3
sS'Altitude'
p221
I1
sS'ICBM'
p222
I1
sS'heartless'
p223
I1
sS'dosing'
p224
I1
sS'Brian'
p225
I3
sS'woman'
p226
I4
sS'reviewing'
p227
I1
sS'want'
p228
I4
sS'bellekalbum'
p229
I1
sS'keep'
p230
I1
sS'attract'
p231
I1
sS'rescue'
p232
I1
sS'sought'
p233
I1
sS'end'
p234
I4
sS'recovery'
p235
I1
sS'ry'
p236
I1
sS'provide'
p237
I2
sS'thousands'
p238
I1
sS'feature'
p239
I1
sS'Yea2s'
p240
I1
sS'machine'
p241
I1
sS'how'
p242
I5
sS'hot'
p243
I2
sS'Poverty'
p244
I1
sS'confin'
p245
I1
sS'accusations'
p246
I1
sS'rookie'
p247
I1
sS'answer'
p248
I2
sS'widespread'
p249
I1
sS'Stock'
p250
I1
sS'III'
p251
I1
sS'charging'
p252
I1
sS'Zealand'
p253
I1
sS'rise'
p254
I3
sS'Lucas'
p255
I1
sS'anti-Israel'
p256
I1
sS'typed'
p257
I1
sS'earlier'
p258
I3
sS'processing'
p259
I1
sS'lab'
p260
I1
sS'Will'
p261
I1
sS'Players'
p262
I1
sS'wrong'
p263
I1
sS'coup'
p264
I1
sS'Paris'
p265
I2
sS'Wild'
p266
I4
sS'president'
p267
I13
sS'law'
p268
I2
sS'meaningful'
p269
I2
sS'stronghold'
p270
I1
sS'All'
p271
I3
sS'Finaleding'
p272
I1
sS'elusive'
p273
I2
sS'Communications'
p274
I1
sS'third'
p275
I3
sS'Ali'
p276
I1
sS'communities'
p277
I1
sS'wins'
p278
I4
sS'acknowledged'
p279
I2
sS'Japanese'
p280
I1
sS'Eric'
p281
I1
sS'hamstrings'
p282
I3
sS'scathing'
p283
I1
sS'Another'
p284
I1
sS'things'
p285
I4
sS'first'
p286
I26
sS'u0026'
p287
I1
sS'order'
p288
I2
sS'wind'
p289
I1
sS'wine'
p290
I1
sS'Blue'
p291
I1
sS'senators'
p292
I2
sS'office'
p293
I3
sS'over'
p294
I24
sS'Surveillance'
p295
I1
sS'adoptees'
p296
I1
sS'Charlottesville'
p297
I1
sS'Toll'
p298
I1
sS'saving'
p299
I1
sS'Oscar'
p300
I1
sS'before'
p301
I5
sS'outsized'
p302
I1
sS'Kremlin-linked'
p303
I3
sS'His'
p304
I4
sS'personal'
p305
I2
sS'Famer'
p306
I3
sS'recreational'
p307
I1
sS'expectations'
p308
I1
sS'Here'
p309
I1
sS'writing'
p310
I2
sS'better'
p311
I3
sS'production'
p312
I1
sS'Evan'
p313
I1
sS'Birth'
p314
I1
sS'Emerald'
p315
I1
sS'Judge'
p316
I1
sS'stalemate'
p317
I1
sS'weeks'
p318
I1
sS'overcome'
p319
I1
sS'Career'
p320
I1
sS'donors'
p321
I2
sS'them'
p322
I9
sS'ISP'
p323
I1
sS'tourist'
p324
I3
sS'Administration'
p325
I1
sS'webshop'
p326
I1
sS'Gotta'
p327
I1
sS'Thomas'
p328
I1
sS'Analysis'
p329
I1
sS'Volvo'
p330
I1
sS'break'
p331
I1
sS'Omar'
p332
I1
sS'they'
p333
I17
sS'schools'
p334
I1
sS'Cabinet'
p335
I1
sS'prize'
p336
I1
sS"administration's"
p337
I1
sS'several'
p338
I7
sS'Liberal'
p339
I1
sS'rocky'
p340
I1
sS'Spousespent'
p341
I1
sS'fonts'
p342
I3
sS'India'
p343
I1
sS'Trickyera'
p344
I1
sS'pains'
p345
I1
sS'victory'
p346
I8
sS'Frankfurter'
p347
I3
sS'Rovers'
p348
I1
sS'went'
p349
I2
sS'side'
p350
I4
sS'bone'
p351
I1
sS'bond'
p352
I2
sS'burial'
p353
I1
sS'Hezbollah'
p354
I1
sS'financial'
p355
I3
sS'Destiny'
p356
I1
sS'independent'
p357
I1
sS'series'
p358
I5
sS'long-running'
p359
I1
sS'principles'
p360
I1
sS'aide'
p361
I2
sS'vote'
p362
I2
sS'trading'
p363
I1
sS'Syriathat'
p364
I1
sS'reached'
p365
I1
sS'navy'
p366
I1
sS'Hollywood'
p367
I1
sS'hurts'
p368
I1
sS'Styles'
p369
I1
sS'misfortune'
p370
I1
sS'driving'
p371
I3
sS'Musklts'
p372
I1
sS'Chancellor'
p373
I2
sS'tried'
p374
I2
sS'crucial'
p375
I1
sS'two-hour'
p376
I2
sS'Expansion'
p377
I1
sS'counselors'
p378
I1
sS'William'
p379
I2
sS'method'
p380
I1
sS'encourage'
p381
I1
sS'for-profit'
p382
I2
sS'assignment'
p383
I1
sS'surprise'
p384
I1
sS'gov'
p385
I1
sS'DLC'
p386
I2
sS'legislative'
p387
I2
sS'turning'
p388
I2
sS'assured'
p389
I1
sS"doesn't"
p390
I3
sS'University'
p391
I2
sS'threatened'
p392
I1
sS'voltages'
p393
I3
sS'free'
p394
I3
sS'Qualcomm'
p395
I1
sS'run-up'
p396
I1
sS'disputes'
p397
I1
sS'W'
I1
sS'-era'
p398
I1
sS'wanted'
p399
I2
sS'Banend'
p400
I1
sS'aisle'
p401
I1
sS'Clinton'
p402
I5
sS'recovering'
p403
I1
sS'created'
p404
I1
sS'Clinto'
p405
I1
sS'National'
p406
I3
sS'Centre'
p407
I1
sS'days'
p408
I6
sS'filter'
p409
I1
sS'000'
p410
I11
sS'oppose'
p411
I1
sS'Human'
p412
I1
sS'soda'
p413
I1
sS'arrived'
p414
I3
sS'double-do7n'
p415
I1
sS'sident'
p416
I2
sS'purpose'
p417
I1
sS'Nicolas'
p418
I1
sS'already'
p419
I1
sS'Hwasong-14'
p420
I1
sS'economists'
p421
I2
sS'Recep'
p422
I1
sS'27-point'
p423
I1
sS'reciprocally'
p424
I1
sS'hearing'
p425
I1
sS'another'
p426
I7
sS'tangle'
p427
I2
sS'ficials'
p428
I1
sS'inmate'
p429
I2
sS'basketball'
p430
I1
sS"Brazil's"
p431
I1
sS'Nielsen'
p432
I1
sS'service'
p433
I8
sS'courted'
p434
I1
sS'Academy'
p435
I2
sS'top'
p436
I7
sS'protracted'
p437
I1
sS'equilibria'
p438
I1
sS"Pyongyang's"
p439
I1
sS'ballistic'
p440
I5
sS'too'
p441
I1
sS'Nintendo'
p442
I4
sS'Press'
p443
I1
sS'dwell'
p444
I3
sS'LNG'
p445
I1
sS'SEATTLE'
p446
I1
sS'bitter'
p447
I1
sS'dogs'
p448
I2
sS'damaging'
p449
I2
sS'listen'
p450
I3
sS'urban'
p451
I1
sS'allow'
p452
I1
sS'Atmospheric'
p453
I1
sS'Notosuchiateeth'
p454
I1
sS'Gulbis'
p455
I1
sS'tool'
p456
I1
sS'took'
p457
I3
sS'task'
p458
I1
sS'longer-term'
p459
I1
sS'Humphrey'
p460
I1
sS'gambler'
p461
I1
sS'target'
p462
I1
sS'showed'
p463
I3
sS'surrounding'
p464
I3
sS'fossilised'
p465
I1
sS'Leicester'
p466
I1
sS'likely'
p467
I3
sS'nations'
p468
I1
sS'regulator'
p469
I1
sS'matter'
p470
I4
sS'appetite'
p471
I1
sS'guilt'
p472
I3
sS'cabin'
p473
I1
sS'Sniffer'
p474
I1
sS'Sen'
p475
I2
sS"company's"
p476
I1
sS'feeling'
p477
I1
sS'Galaxy'
p478
I1
sS'Cody'
p479
I1
sS'THAAD'
p480
I2
sS'sees'
p481
I1
sS'Chicago'
p482
I3
sS'ran'
p483
I4
sS'Mind'
p484
I1
sS'modern'
p485
I5
sS'mind'
p486
I1
sS'spectrum'
p487
I1
sS'Angela'
p488
I2
sS'Flood'
p489
I1
sS'crew'
p490
I2
sS'seem'
p491
I1
sS'seek'
p492
I1
sS'tells'
p493
I3
sS'Williams'
p494
I3
sS'dozen'
p495
I3
sS'forced'
p496
I1
sS'burgers'
p497
I1
sS'responsible'
p498
I3
sS'-'
I13
sS'isolated'
p499
I1
sS'Estrella'
p500
I1
sS'recommended'
p501
I1
sS'Historic'
p502
I1
sS'Minister'
p503
I4
sS'forces'
p504
I6
sS'season'
p505
I3
sS'grips'
p506
I1
sS'Russi'
p507
I1
sS'Bank'
p508
I1
sS'crocs'
p509
I1
sS'Jones'
p510
I2
sS'blue'
p511
I1
sS'Qs'
p512
I1
sS'detained'
p513
I1
sS'proving'
p514
I1
sS'catastrophe'
p515
I1
sS"tech's"
p516
I1
sS'optimized'
p517
I1
sS'involving'
p518
I2
sS'letter'
p519
I1
sS'organization'
p520
I1
sS'Asian'
p521
I1
sS'Minecraft'
p522
I1
sS"Lindor's"
p523
I1
sS'grave'
p524
I2
sS'Bernie'
p525
I1
sS'reimbursement'
p526
I1
sS'singer'
p527
I1
sS'don'
p528
I2
sS'Lewis'
p529
I1
sS'camp'
p530
I1
sS'metal'
p531
I1
sS'Bungie'
p532
I1
sS'Democrat'
p533
I1
sS'tech'
p534
I2
sS'everything'
p535
I1
sS'Its'
p536
I1
sS'came'
p537
I3
sS'saying'
p538
I2
sS'slums'
p539
I1
sS'ransomware'
p540
I1
sS'saga'
p541
I1
sS'meetings'
p542
I3
sS'Agency'
p543
I1
sS'Colbert'
p544
I1
sS'syntax'
p545
I1
sS'rediscovery'
p546
I1
sS'attempts'
p547
I1
sS"Uber's"
p548
I1
sS'near-capacity'
p549
I1
sS'sexism'
p550
I1
sS'Anne'
p551
I1
sS'Twister'
p552
I1
sS'five-week'
p553
I1
sS"Wimbledon's"
p554
I1
sS'European'
p555
I4
sS'Seventy'
p556
I1
sS'tidge'
p557
I1
sS'sewn'
p558
I1
sS'proposed'
p559
I2
sS'Stance'
p560
I1
sS'Janeiro'
p561
I1
sS'panned'
p562
I1
sS'Big'
p563
I2
sS'delays'
p564
I1
sS'Republicans'
p565
I10
sS"baby's"
p566
I1
sS'Amazon'
p567
I2
sS'bust'
p568
I1
sS'gutsy'
p569
I1
sS'Wight'
p570
I2
sS'Contradictory'
p571
I1
sS'announce'
p572
I1
sS'Appeals'
p573
I1
sS"'no"
p574
I1
sS'wearing'
p575
I1
sS'do'
p576
I4
sS'exports'
p577
I4
sS'sunglasses'
p578
I1
sS'professionals'
p579
I2
sS'theybrand'
p580
I1
sS'de'
p581
I1
sS'13'
p582
I2
sS'psychiatric'
p583
I1
sS'Sifton'
p584
I1
sS'criticized'
p585
I2
sS'h'
I1
sS'supplies'
p586
I1
sS'report'
p587
I2
sS'carries'
p588
I2
sS'nasty'
p589
I2
sS'Husband'
p590
I1
sS'Colorado'
p591
I2
sS'Senators'
p592
I1
sS'child'
p593
I3
sS'Leaders'
p594
I1
sS'countries'
p595
I1
sS'rowing'
p596
I1
sS'Creator'
p597
I1
sS'bandwidth'
p598
I1
sS'patch'
p599
I3
sS"them'"
p600
I1
sS'twice'
p601
I3
sS'bad'
p602
I1
sS'Beast'
p603
I1
sS'three-year'
p604
I3
sS'Bigger'
p605
I1
sS'release'
p606
I1
sS'shocks'
p607
I1
sS'90'
p608
I1
sS'secretary'
p609
I4
sS'searching'
p610
I2
sS'Jackson'
p611
I1
sS'victim'
p612
I1
sS'fair'
p613
I1
sS'job'
p614
I2
sS'Hospital'
p615
I1
sS'Ellison'
p616
I1
sS'resist'
p617
I3
sS'pads'
p618
I1
sS'kneecaps'
p619
I1
sS'fail'
p620
I1
sS'Android'
p621
I1
sS'John'
p622
I3
sS'redoubts'
p623
I1
sS'best'
p624
I5
sS'subject'
p625
I3
sS'said'
p626
I39
sS'capacity'
p627
I1
sS'runs'
p628
I2
sS'ambitions'
p629
I1
sS'lots'
p630
I1
sS'away'
p631
I4
sS'Bellinger'
p632
I1
sS'Water'
p633
I1
sS'unable'
p634
I1
sS'cooperation'
p635
I1
sS'Technologies'
p636
I1
sS'approach'
p637
I2
sS'shields'
p638
I1
sS'discovery'
p639
I1
sS'occurredet'
p640
I1
sS'warrior'
p641
I1
sS'we'
p642
I6
sS'never'
p643
I1
sS'terms'
p644
I1
sS'paywall'
p645
I1
sS'-Russia'
p646
I2
sS'handful'
p647
I1
sS'Sam'
p648
I2
sS'boss'
p649
I1
sS'retirement'
p650
I1
sS'auteur'
p651
I1
sS'drew'
p652
I1
sS'news'
p653
I5
sS'hundreds'
p654
I1
sS'improve'
p655
I1
sS'suggested'
p656
I1
sS"Homecoming'"
p657
I1
sS'climate'
p658
I6
sS'accident'
p659
I3
sS'unt'
p660
I1
sS'reported'
p661
I4
sS'Dance'
p662
I1
sS'country'
p663
I5
sS'uncertainty'
p664
I2
sS'heating'
p665
I1
sS'against'
p666
I16
sS'players'
p667
I1
sS'games'
p668
I3
sS'planned'
p669
I2
sS'lottery-ticket'
p670
I1
sS"leaders'"
p671
I1
sS'Dawn'
p672
I2
sS'confronted'
p673
I1
sS'asked'
p674
I3
sS'Blocked'
p675
I1
sS"Germany's"
p676
I1
sS'prospect'
p677
I3
sS'standings'
p678
I1
sS'Zendaya'
p679
I1
sS'tond'
p680
I1
sS'Redfin'
p681
I1
sS'Russiangld'
p682
I1
sS'Gas'
p683
I1
sS'betting'
p684
I1
sS'excess'
p685
I1
sS'Petroleum'
p686
I2
sS'20s'
p687
I1
sS"State's"
p688
I2
sS'ndepending'
p689
I1
sS'Ohio'
p690
I3
sS'Jurvetson'
p691
I1
sS'Sorry'
p692
I1
sS'trust'
p693
I3
sS'257'
p694
I1
sS'speak'
p695
I1
sS'conference'
p696
I2
sS'question'
p697
I4
sS'bathroom'
p698
I1
sS'strong'
p699
I3
sS'targeting'
p700
I3
sS'asks'
p701
I2
sS"I've"
p702
I1
sS'patrolling'
p703
I1
sS'three'
p704
I4
sS'been'
p705
I20
sS'commission'
p706
I1
sS'Hillary'
p707
I5
sS'much'
p708
I5
sS'interest'
p709
I1
sS'expected'
p710
I7
sS'parents'
p711
I2
sS'entered'
p712
I2
sS'dozens'
p713
I1
sS'borrowers'
p714
I1
sS'life'
p715
I6
sS'so-called'
p716
I1
sS'innocent'
p717
I1
sS'Vice'
p718
I1
sS'turned'
p719
I1
sS'Poland'
p720
I2
sS'Elections'
p721
I2
sS'marijuana'
p722
I1
sS'atgs'
p723
I1
sS'lift'
p724
I3
sS'all-cash'
p725
I1
sS'deepen'
p726
I1
sS'Voice'
p727
I1
sS'Secretary'
p728
I4
sS'body--from'
p729
I2
sS'Trumpsho7ing'
p730
I1
sS'Co'
p731
I2
sS'Clark'
p732
I1
sS'reworking'
p733
I1
sS'put8'
p734
I1
sS'Billions'
p735
I1
sS'remaining'
p736
I2
sS'aim'
p737
I2
sS'ugly'
p738
I1
sS'near'
p739
I6
sS'Sonntagszeitung'
p740
I2
sS'Cleveland'
p741
I1
sS'property'
p742
I1
sS'study'
p743
I2
sS'launched'
p744
I3
sS'pessimistic'
p745
I1
sS'seven'
p746
I1
sS'Openmoko'
p747
I1
sS'is'
p748
I86
sS'Among'
p749
I1
sS'it'
p750
I46
sS'LOL'
p751
I1
sS'Write'
p752
I1
sS'player'
p753
I1
sS'Rubio'
p754
I1
sS'London-based'
p755
I1
sS'experience'
p756
I2
sS'Sword'
p757
I1
sS'in'
p758
I225
sS'2049'
p759
I1
sS'Tell'
p760
I1
sS'trusted'
p761
I1
sS'if'
p762
I10
sS'grown'
p763
I1
sS'confirmed'
p764
I2
sS'suggest'
p765
I2
sS'make'
p766
I5
sS'Oh'
p767
I1
sS'sidelined'
p768
I1
sS'Kremlin'
p769
I2
sS'Pratt'
p770
I1
sS'potentially'
p771
I1
sS'harmony'
p772
I1
sS'unfortunate'
p773
I1
sS'big'
p774
I6
sS'Mocks'
p775
I1
sS'President'
p776
I34
sS'sidelines'
p777
I1
sS'bid'
p778
I2
sS'Cyclist'
p779
I1
sS'Lebanese'
p780
I1
sS'Obuchowski'
p781
I1
sS'immigration'
p782
I1
sS'milestone'
p783
I1
sS'pick'
p784
I1
sS'Adam'
p785
I2
sS'hand'
p786
I9
sS'Angeles'
p787
I8
sS"Lionsgate's"
p788
I1
sS'rais'
p789
I1
sS'ownership'
p790
I1
sS'Home'
p791
I1
sS'selfless'
p792
I1
sS'blamed'
p793
I1
sS'thoughts'
p794
I1
sS'Brexit-inspired'
p795
I1
sS'shortly'
p796
I1
sS'Las'
p797
I1
sS'programs'
p798
I2
sS'performance'
p799
I2
sS'1973'
p800
I3
sS'Kremlin-connected'
p801
I1
sS'1970'
p802
I2
sS'Jewish'
p803
I1
sS'resuming'
p804
I1
sS'thi'
p805
I1
sS'censured'
p806
I1
sS'the'
p807
I539
sS'camps'
p808
I1
sS'Mobil'
p809
I4
sS'left'
p810
I8
sS'leagues'
p811
I1
sS'agency'
p812
I1
sS'just'
p813
I9
sS'agoe'
p814
I1
sS'photo'
p815
I1
sS'sporting'
p816
I1
sS'overemphasis'
p817
I3
sS'proposes'
p818
I1
sS'fighters'
p819
I3
sS'eident'
p820
I1
sS'battles'
p821
I1
sS'human'
p822
I4
sS'ridiculed'
p823
I1
sS'Featuring'
p824
I1
sS'yet'
p825
I3
sS'Sheriff'
p826
I1
sS'candidate'
p827
I1
sS'equipment'
p828
I4
sS'photographer'
p829
I2
sS'had'
p830
I19
sS'Jameson'
p831
I1
sS'Baghdad'
p832
I1
sS'easy'
p833
I2
sS'prison'
p834
I1
sS'News'
p835
I4
sS'has'
p836
I43
sS'humanity'
p837
I1
sS'cyber-based'
p838
I1
sS'gave'
p839
I3
sS'opt'
p840
I1
sS'casting'
p841
I1
sS'Wilbur'
p842
I1
sS'sailors'
p843
I1
sS'James'
p844
I2
sS'survival'
p845
I1
sS'equipmen'
p846
I1
sS'possible'
p847
I2
sS'spanned'
p848
I1
sS'Morning'
p849
I3
sS'Flaking'
p850
I1
sS'injuring'
p851
I1
sS'birth'
p852
I2
sS'Missouri'
p853
I1
sS'judge'
p854
I1
sS'sanitary'
p855
I1
sS'unique'
p856
I2
sS'retreat'
p857
I2
sS'59'
p858
I1
sS'Trump'
p859
I50
sS'Frogs'
p860
I1
sS"'ball"
p861
I2
sS'seaside'
p862
I1
sS'50'
p863
I3
sS'Claudio'
p864
I1
sS'52'
p865
I3
sS'specific'
p866
I2
sS'festivities'
p867
I1
sS'officer'
p868
I1
sS'night'
p869
I1
sS'security'
p870
I3
sS'Pentagon'
p871
I1
sS'towards'
p872
I1
sS'Warren'
p873
I2
sS'Again'
p874
I1
sS'attorney'
p875
I1
sS'right'
p876
I5
sS'old'
p877
I2
sS'crowd'
p878
I2
sS'people'
p879
I11
sS'cybersecurity'
p880
I2
sS'successfully'
p881
I1
sS'begin'
p882
I1
sS'dead'
p883
I1
sS'eight-month'
p884
I1
sS'Commission'
p885
I1
sS'election'
p886
I11
sS'escape'
p887
I1
sS'critique'
p888
I1
sS'interf'
p889
I1
sS'deat'
p890
I1
sS'forgotten'
p891
I1
sS'congratulate'
p892
I1
sS'Motherwell'
p893
I1
sS'for'
p894
I103
sS'counterprotesters'
p895
I1
sS'Getting'
p896
I1
sS'antimatter'
p897
I2
sS'ice'
p898
I1
sS'repression'
p899
I1
sS'arguing'
p900
I2
sS'fog'
p901
I1
sS'Let'
p902
I1
sS'landscape'
p903
I1
sS'summoned'
p904
I1
sS'denied'
p905
I1
sS'Chris'
p906
I4
sS'meaty'
p907
I1
sS'Keith'
p908
I1
sS'He'
p909
I4
sS'Shiite'
p910
I1
sS'high-school-centric'
p911
I1
sS'marketing'
p912
I1
sS'three-team'
p913
I1
sS'shareholders'
p914
I1
sS'defensive'
p915
I1
sS'losing'
p916
I1
sS'flaws'
p917
I1
sS"'madness'"
p918
I1
sS'First'
p919
I2
sS'potentiallythwest'
p920
I1
sS'attacks'
p921
I2
sS'In-house'
p922
I1
sS'months'
p923
I9
sS'rim'
p924
I1
sS'assault'
p925
I2
sS'o'
I1
sS'misleading'
p926
I2
sS'ensure'
p927
I2
sS'eight'
p928
I2
sS'lacked'
p929
I1
sS'book'
p930
I2
sS'Best'
p931
I1
sS'Mode'
p932
I4
sS'raised'
p933
I2
sS'Feb'
p934
I1
sS'Horizon'
p935
I3
sS'Blacks'
p936
I1
sS'Dallas'
p937
I3
sS'civil'
p938
I2
sS'Scotland'
p939
I2
sS'bound'
p940
I1
sS'son'
p941
I7
sS'down'
p942
I6
sS'SUV'
p943
I1
sS'Aaron'
p944
I1
sS'Chainz'
p945
I1
sS'George'
p946
I2
sS'soon'
p947
I1
sS'Darth'
p948
I1
sS'ISIS'
p949
I3
sS'deal'
p950
I4
sS'support'
p951
I3
sS'tennis'
p952
I2
sS'legislation'
p953
I3
sS'payment'
p954
I1
sS'sends'
p955
I1
sS'way'
p956
I12
sS'call'
p957
I1
sS'NBA'
p958
I3
sS'Northridge'
p959
I2
sS'was'
p960
I54
sS'war'
p961
I3
sS'across'
p962
I2
sS'Djokovic'
p963
I1
sS'R-SC'
p964
I1
sS'head'
p965
I3
sS'Jigsaw'
p966
I1
sS'DNA'
p967
I2
sS'form'
p968
I2
sS'offer'
p969
I1
sS'forming'
p970
I1
sS'fireworks'
p971
I3
sS'wireless'
p972
I1
sS'taken'
p973
I2
sS'heat'
p974
I2
sS'hear'
p975
I2
sS"Freestyle'"
p976
I1
sS'solar'
p977
I2
sS'Parris'
p978
I1
sS'reset'
p979
I1
sS'Golden'
p980
I1
sS'tweeted'
p981
I1
sS'builds'
p982
I1
sS'versions'
p983
I1
sS'prevents'
p984
I3
sS'manylistic'
p985
I1
sS'helicopter'
p986
I1
sS'tell'
p987
I2
sS'County'
p988
I3
sS'economic'
p989
I2
sS'cosmos'
p990
I1
sS'panels'
p991
I1
sS'propaganda'
p992
I1
sS'Ballerina'
p993
I1
sS'proud'
p994
I1
sS'classic'
p995
I2
sS'request'
p996
I1
sS'umpire'
p997
I2
sS'Free'
p998
I2
sS'evidence'
p999
I3
sS'Functionality'
p1000
I2
sS'promised'
p1001
I4
sS'Cabello'
p1002
I1
sS'accounting'
p1003
I1
sS'ship'
p1004
I1
sS'Trumportunities'
p1005
I1
sS'check'
p1006
I1
sS'triangles'
p1007
I1
sS'Bumble'
p1008
I1
sS'Begin'
p1009
I1
sS'Francisco'
p1010
I2
sS'Handle'
p1011
I1
sS'no'
p1012
I11
sS'clings'
p1013
I1
sS'ne'
p1014
I1
sS'Cornwall'
p1015
I1
sS'tin'
p1016
I1
sS'Nolan'
p1017
I1
sS'role'
p1018
I1
sS'holding'
p1019
I2
sS'test'
p1020
I6
sS'developers'
p1021
I2
sS'erosion'
p1022
I1
sS'company'
p1023
I10
sS'picture'
p1024
I2
sS"'s"
p1025
I4
sS'models'
p1026
I1
sS'Leeds'
p1027
I1
sS'outreach'
p1028
I2
sS'diet'
p1029
I1
sS'Melbourne'
p1030
I2
sS'concurrent'
p1031
I1
sS'authoritarianism'
p1032
I1
sS'propelling'
p1033
I1
sS'scores'
p1034
I1
sS'authorities'
p1035
I5
sS'weekend'
p1036
I2
sS'Gardens'
p1037
I1
sS'died'
p1038
I8
sS'billion'
p1039
I5
sS'longer'
p1040
I4
sS'Doha'
p1041
I1
sS"Tomorrow's"
p1042
I1
sS'Charles'
p1043
I1
sS'Sgt'
p1044
I1
sS'together'
p1045
I5
sS'Jess'
p1046
I1
sS'weapons'
p1047
I2
sS'time'
p1048
I13
sS'push'
p1049
I2
sS'Roger'
p1050
I1
sS'lineup'
p1051
I1
sS'Moscow'
p1052
I3
sS'songs'
p1053
I3
sS'neighbors'
p1054
I1
sS'breadth'
p1055
I1
sS'coach'
p1056
I1
sS'Ps'
p1057
I1
sS'Ten'
p1058
I1
sS'Buffett'
p1059
I1
sS'eldest'
p1060
I1
sS"film's"
p1061
I1
sS'integration'
p1062
I1
sS'selection'
p1063
I1
sS'comments'
p1064
I1
sS'mimic'
p1065
I1
sS'battle'
p1066
I7
sS'Indiana'
p1067
I2
sS'Pride'
p1068
I3
sS"Magazine's"
p1069
I1
sS'Neath'
p1070
I1
sS'devoted'
p1071
I1
sS'Jessica'
p1072
I1
sS'zone'
p1073
I1
sS'foe'
p1074
I1
sS'honoring'
p1075
I2
sS'Spoilers'
p1076
I1
sS'Exactly'
p1077
I1
sS'Petya'
p1078
I1
sS'Netanyahu'
p1079
I1
sS'de-facto'
p1080
I1
sS'30pm'
p1081
I1
sS'finally'
p1082
I3
sS'praised'
p1083
I2
sS'promoting'
p1084
I1
sS'Se'
p1085
I1
sS"Mexico's"
p1086
I1
sS'terror'
p1087
I1
sS'Atlanta'
p1088
I2
sS'Bandicoot'
p1089
I2
sS'Day'
p1090
I3
sS'southwest'
p1091
I1
sS'town'
p1092
I1
sS'smartphone'
p1093
I1
sS'advantage'
p1094
I2
sS'interbred'
p1095
I4
sS'consolidation'
p1096
I1
sS'choice'
p1097
I1
sS'two-time'
p1098
I1
sS'Athletics'
p1099
I2
sS'Jersey'
p1100
I3
sS'cool'
p1101
I2
sS'discovered'
p1102
I1
sS'Just'
p1103
I2
sS'did'
p1104
I7
sS'die'
p1105
I1
sS'dig'
p1106
I2
sS'Tax'
p1107
I2
sS'gun'
p1108
I1
sS'leave'
p1109
I1
sS'p'
I5
sS'settle'
p1110
I1
sS'team'
p1111
I2
sS'speculation'
p1112
I2
sS'round'
p1113
I4
sS'Kevin'
p1114
I5
sS'upper'
p1115
I1
sS'Rex'
p1116
I4
sS'plummet'
p1117
I1
sS'says'
p1118
I24
sS'Campaigners'
p1119
I1
sS'al-Abadi'
p1120
I5
sS'Merger'
p1121
I1
sS'dealing'
p1122
I1
sS'Rep'
p1123
I1
sS'southwestern'
p1124
I1
sS'cyber'
p1125
I3
sS'overhaul'
p1126
I2
sS'cost'
p1127
I1
sS'Ren'
p1128
I1
sS'Shakespeare'
p1129
I1
sS'scarce'
p1130
I1
sS'de-escalation'
p1131
I1
sS'patient'
p1132
I1
sS'bacteria'
p1133
I1
sS'Red'
p1134
I2
sS'majors'
p1135
I2
sS'enticing'
p1136
I1
sS'Sessionsf'
p1137
I1
sS'Lowe'
p1138
I1
sS'adds'
p1139
I1
sS'stands'
p1140
I2
sS'PCs'
p1141
I1
sS'celebrated'
p1142
I3
sS'shares'
p1143
I2
sS'current'
p1144
I2
sS'Cruz'
p1145
I1
sS'Martian'
p1146
I1
sS'goes'
p1147
I2
sS'retrea'
p1148
I1
sS'During'
p1149
I1
sS'falling'
p1150
I1
sS"Pence's"
p1151
I1
sS'Lopez'
p1152
I1
sS'Renewable'
p1153
I1
sS'Md'
p1154
I1
sS'Bill'
p1155
I3
sS'explosion'
p1156
I1
sS'Mideast'
p1157
I1
sS'Mc'
p1158
I6
sS'inauguration'
p1159
I1
sS'raided'
p1160
I1
sS'water'
p1161
I1
sS'lu'
p1162
I1
sS'team-by-team'
p1163
I2
sS'groups'
p1164
I2
sS'English'
p1165
I2
sS'Nostalgic'
p1166
I1
sS'along'
p1167
I2
sS'refused'
p1168
I1
sS'appears'
p1169
I2
sS'change'
p1170
I8
sS'Warner'
p1171
I1
sS'Webb'
p1172
I1
sS'boy'
p1173
I1
sS"Sessions'"
p1174
I1
sS'Hugo'
p1175
I1
sS'flames'
p1176
I2
sS'battling'
p1177
I3
sS'suggestion'
p1178
I1
sS'usually'
p1179
I1
sS'ill-fated'
p1180
I1
sS'Inc'
p1181
I1
sS"country's"
p1182
I1
sS'reclaim'
p1183
I1
sS'lowers'
p1184
I1
sS'love'
p1185
I2
sS'Justice'
p1186
I5
sS"It's"
p1187
I6
sS'When'
p1188
I1
sS'marked'
p1189
I3
sS'histories'
p1190
I1
sS'Unions'
p1191
I1
sS'fake'
p1192
I1
sS'DOS'
p1193
I1
sS'Jane'
p1194
I1
sS'rarely'
p1195
I1
sS'crisis'
p1196
I3
sS'market'
p1197
I3
sS'regex'
p1198
I1
sS'Sanders'
p1199
I1
sS'Australia'
p1200
I1
sS'filmo'
p1201
I3
sS'troops'
p1202
I1
sS'working'
p1203
I1
sS'Billionaire'
p1204
I2
sS'angry'
p1205
I1
sS'give'
p1206
I1
sS'visit'
p1207
I1
sS'by'
p1208
I40
sS'scenarios'
p1209
I1
sS'live'
p1210
I3
sS'Awards'
p1211
I1
sS'cigar-smoking'
p1212
I1
sS'films'
p1213
I2
sS'cited'
p1214
I1
sS'today'
p1215
I3
sS'GUSH'
p1216
I1
sS'shine'
p1217
I1
sS'October'
p1218
I1
sS'teased'
p1219
I1
sS'Plea'
p1220
I1
sS'one-two'
p1221
I1
sS'python'
p1222
I1
sS'share'
p1223
I3
sS'apparent'
p1224
I2
sS"series'"
p1225
I1
sS'Camilia'
p1226
I1
sS'Showsndly'
p1227
I1
sS'employee'
p1228
I1
sS'Goofy'
p1229
I1
sS"Angelala's"
p1230
I1
sS'Eilidh'
p1231
I1
sS'effort'
p1232
I2
sS'Latest'
p1233
I2
sS'organizations'
p1234
I1
sS'Family'
p1235
I1
sS'pushed'
p1236
I1
sS'German'
p1237
I2
sS'car'
p1238
I2
sS'Allied'
p1239
I1
sS'cap'
p1240
I1
sS'believes'
p1241
I3
sS'impasse'
p1242
I3
sS'sour'
p1243
I3
sS'can'
p1244
I12
sS'9th'
p1245
I2
sS'following'
p1246
I6
sS'making'
p1247
I3
sS'fun'
p1248
I2
sS'Children'
p1249
I1
sS'address'
p1250
I1
sS'Out'
p1251
I2
sS'streak'
p1252
I1
sS'claim'
p1253
I2
sS'Harewood'
p1254
I1
sS'Renate'
p1255
I1
sS'figure'
p1256
I2
sS'syntaxes'
p1257
I1
sS'Federal'
p1258
I6
sS"didn't"
p1259
I1
sS'agent'
p1260
I1
sS'heard'
p1261
I1
sS'fortunes'
p1262
I1
sS'dropped'
p1263
I2
sS'hides'
p1264
I1
sS'allowed'
p1265
I1
sS'stole'
p1266
I1
sS'ertaken'
p1267
I1
sS'Mexican'
p1268
I1
sS'productive'
p1269
I1
sS'bankrupt'
p1270
I3
sS'divided'
p1271
I1
sS'Who'
p1272
I4
sS'ambush'
p1273
I1
sS'1'
I1
sS'fourth'
p1274
I1
sS'reapplying'
p1275
I1
sS'Why'
p1276
I5
sS'146'
p1277
I1
sS'map'
p1278
I1
sS'backtracked'
p1279
I1
sS'Proenza'
p1280
I1
sS'mat'
p1281
I1
sS'Mansions'
p1282
I1
sS'huge'
p1283
I3
sS'may'
p1284
I9
sS'spot'
p1285
I1
sS'respective'
p1286
I1
sS'fueled'
p1287
I1
sS'membership'
p1288
I1
sS'4th'
p1289
I1
sS'Martin'
p1290
I1
sS'date'
p1291
I1
sS'such'
p1292
I4
sS'heroes'
p1293
I2
sS'truly'
p1294
I2
sS'revealed'
p1295
I5
sS'efforts'
p1296
I1
sS'man'
p1297
I8
sS'stress'
p1298
I1
sS'Ros'
p1299
I1
sS'pro-feminist'
p1300
I1
sS'moments'
p1301
I1
sS'joint'
p1302
I1
sS'long-range'
p1303
I1
sS'Marlins'
p1304
I1
sS"agenda'"
p1305
I1
sS'persons'
p1306
I1
sS'hailed'
p1307
I1
sS'so'
p1308
I12
sS'increase'
p1309
I1
sS'pulled'
p1310
I1
sS'Wh9'
p1311
I1
sS'talk'
p1312
I4
sS'exclusive'
p1313
I1
sS'Enduress'
p1314
I1
sS'constituents'
p1315
I2
sS"Amazon's"
p1316
I1
sS'Wyoming'
p1317
I1
sS'wildfires'
p1318
I1
sS'years'
p1319
I12
sS'brain'
p1320
I1
sS'Genetic'
p1321
I1
sS'tablets'
p1322
I2
sS'in-store'
p1323
I1
sS'pitch'
p1324
I1
sS'managers'
p1325
I1
sS'White'
p1326
I6
sS'still'
p1327
I6
sS'birds'
p1328
I1
sS'froze'
p1329
I1
sS'Regain'
p1330
I1
sS'police'
p1331
I10
sS'monitor'
p1332
I1
sS'acknowledge'
p1333
I2
sS'presence'
p1334
I1
sS'Rail'
p1335
I1
sS'clearest'
p1336
I1
sS"he'd"
p1337
I2
sS'attraction'
p1338
I2
sS'offers'
p1339
I1
sS'Khalifa'
p1340
I1
sS'policy'
p1341
I5
sS'ent'
p1342
I1
sS'tory'
p1343
I1
sS'parades'
p1344
I1
sS'happened'
p1345
I2
sS'R-AZ'
p1346
I1
sS'within'
p1347
I4
sS'qualifies'
p1348
I1
sS'LP'
p1349
I1
sS'civilian'
p1350
I1
sS'matches'
p1351
I3
sS'Deutsche'
p1352
I1
sS'nation'
p1353
I3
sS'interview'
p1354
I2
sS'Lucasfilm'
p1355
I1
sS'subscribers'
p1356
I1
sS"kids'"
p1357
I2
sS'not'
p1358
I30
sS'Tower'
p1359
I1
sS'now'
p1360
I8
sS'discuss'
p1361
I3
sS'nor'
p1362
I1
sS'commuters'
p1363
I1
sS'Burgos'
p1364
I1
sS'shouted'
p1365
I1
sS'name'
p1366
I1
sS'Stephens'
p1367
I1
sS'Everything'
p1368
I1
sS'corners'
p1369
I1
sS'lefty'
p1370
I1
sS'47'
p1371
I1
sS'Cheats'
p1372
I2
sS'rock'
p1373
I1
sS'Campaigning'
p1374
I1
sS'Event'
p1375
I1
sS'A'
I49
sS'Detectives'
p1376
I1
sS'significantly'
p1377
I1
sS'ed'
p1378
I1
sS'ap0arent'
p1379
I1
sS'fr'
p1380
I1
sS'Live'
p1381
I3
sS'year'
p1382
I13
sS'happen'
p1383
I1
sS'Caroline'
p1384
I2
sS'Seattle-based'
p1385
I1
sS'hacker'
p1386
I1
sS'living'
p1387
I2
sS'container'
p1388
I1
sS'opened'
p1389
I2
sS'Cityassidy'
p1390
I1
sS'factors'
p1391
I1
sS'profit'
p1392
I1
sS'tensions'
p1393
I3
sS'Michigan'
p1394
I1
sS'Welcome'
p1395
I1
sS'interference'
p1396
I11
sS"manager's"
p1397
I1
sS'abide'
p1398
I1
sS'looking'
p1399
I4
sS'investigation'
p1400
I4
sS'trauma'
p1401
I1
sS"shouldn't"
p1402
I2
sS'hacked'
p1403
I1
sS'internet'
p1404
I3
sS'suggesting'
p1405
I3
sS'correct'
p1406
I1
sS'shows'
p1407
I4
sS'Commerce'
p1408
I1
sS'attended'
p1409
I3
sS'Rights'
p1410
I1
sS'ort'
p1411
I1
sS'million'
p1412
I10
sS'face-to-face'
p1413
I1
sS'governing'
p1414
I1
sS'disrespect'
p1415
I1
sS'recordings'
p1416
I1
sS'all-rounder'
p1417
I1
sS'ork'
p1418
I1
sS'Marks'
p1419
I1
sS'Security'
p1420
I1
sS"month's"
p1421
I1
sS'technocrats'
p1422
I1
sS'partner'
p1423
I1
sS'underwear'
p1424
I1
sS'Already'
p1425
I1
sS'language'
p1426
I1
sS'dinosaurs'
p1427
I2
sS'waiter'
p1428
I1
sS'flare'
p1429
I1
sS'listings'
p1430
I1
sS'programming'
p1431
I1
sS'honest'
p1432
I1
sS'turn'
p1433
I2
sS'person'
p1434
I1
sS'place'
p1435
I1
sS'aboard'
p1436
I1
sS'styles'
p1437
I1
sS'Sonnta'
p1438
I1
sS'widow'
p1439
I2
sS'think'
p1440
I2
sS'1000'
p1441
I1
sS'Even'
p1442
I1
sS'Incr'
p1443
I1
sS'flying'
p1444
I1
sS'Rumors'
p1445
I1
sS'onl'
p1446
I1
sS'revenue'
p1447
I2
sS'dungeons'
p1448
I1
sS'There'
p1449
I4
sS'Royal'
p1450
I1
sS'one'
p1451
I15
sS'Black'
p1452
I1
sS'textual'
p1453
I1
sS'Rookie'
p1454
I1
sS'carry'
p1455
I1
sS'impossible'
p1456
I1
sS'sounds'
p1457
I1
sS'Neo1973'
p1458
I1
sS'engineer'
p1459
I1
sS'city'
p1460
I6
sS'given'
p1461
I3
sS'Monday'
p1462
I3
sS'Investigations'
p1463
I1
sS'ex-wife'
p1464
I1
sS'caught'
p1465
I1
sS'Area'
p1466
I1
sS'self-hosted'
p1467
I1
sS'2'
I8
sS'stuffed'
p1468
I1
sS'convene'
p1469
I1
sS'legally'
p1470
I1
sS'five-part'
p1471
I1
sS'Spider-Man'
p1472
I3
sS'speaking'
p1473
I1
sS'meme'
p1474
I1
sS'exploring'
p1475
I1
sS'Trumpd'
p1476
I1
sS'Oncor'
p1477
I2
sS'that'
p1478
I94
sS'turbulent'
p1479
I1
sS'circulated'
p1480
I1
sS'meddling'
p1481
I5
sS'veers'
p1482
I1
sS'released'
p1483
I6
sS'Trumpt'
p1484
I1
sS'Miles'
p1485
I1
sS'Issue'
p1486
I1
sS'attempt'
p1487
I2
sS'operates'
p1488
I1
sS'surged'
p1489
I2
sS'than'
p1490
I29
sS"here's"
p1491
I1
sS'11'
p1492
I3
sS'10'
p1493
I9
sS'Seven'
p1494
I1
sS'12'
p1495
I3
sS'14'
p1496
I1
sS'17'
p1497
I2
sS'16'
p1498
I1
sS'Newsne'
p1499
I2
sS'rival'
p1500
I1
sS'Sears'
p1501
I1
sS'future'
p1502
I4
sS'were'
p1503
I15
sS'Plannerracteron'
p1504
I1
sS'published'
p1505
I1
sS'and'
p1506
I233
sS'gathering'
p1507
I1
sS'54bn'
p1508
I1
sS'Court'
p1509
I6
sS'investors'
p1510
I1
sS"He's"
p1511
I2
sS'Destabilizing'
p1512
I1
sS'revolt'
p1513
I1
sS'topics'
p1514
I1
sS'pri'
p1515
I1
sS'DC'
p1516
I1
sS'sad'
p1517
I1
sS'ant'
p1518
I1
sS'say'
p1519
I8
sS'conspiracy'
p1520
I1
sS'self-medication'
p1521
I1
sS"Monogram's"
p1522
I1
sS'Valley'
p1523
I1
sS'Crawford'
p1524
I1
sS'any'
p1525
I6
sS'sat'
p1526
I1
sS'Do'
p1527
I1
sS'Shaun'
p1528
I1
sS'Pi'
p1529
I1
sS'offering'
p1530
I1
sS'efficient'
p1531
I1
sS'ideas'
p1532
I2
sS'Meddling'
p1533
I1
sS'note'
p1534
I2
sS'Famous'
p1535
I1
sS'potential'
p1536
I4
sS'take'
p1537
I5
sS'fracture'
p1538
I3
sS'online'
p1539
I1
sS'Turbulence'
p1540
I1
sS'OPEC'
p1541
I1
sS'Hall'
p1542
I3
sS'channel'
p1543
I2
sS'Democrats'
p1544
I3
sS'Legislature'
p1545
I1
sS'urge'
p1546
I1
sS'thug'
p1547
I1
sS'sure'
p1548
I2
sS'pain'
p1549
I1
sS'investigations'
p1550
I3
sS'track'
p1551
I3
sS'paid'
p1552
I2
sS'Visa-'
p1553
I1
sS'beta'
p1554
I1
sS'Wyn'
p1555
I1
sS'Tommy'
p1556
I2
sS'GOP'
p1557
I1
sS'grueling'
p1558
I1
sS'Overwatch'
p1559
I1
sS'Praying'
p1560
I1
sS'especially'
p1561
I1
sS'350'
p1562
I1
sS'angst'
p1563
I1
sS'athletes'
p1564
I2
sS'removed'
p1565
I1
sS'That'
p1566
I3
sS'Humans'
p1567
I1
sS'duo'
p1568
I1
sS'tooth'
p1569
I1
sS'federal'
p1570
I1
sS'Antarctica'
p1571
I1
sS'clearing'
p1572
I1
sS'professional'
p1573
I2
sS'senior'
p1574
I2
sS'filing'
p1575
I2
sS'laws'
p1576
I1
sS'precise'
p1577
I1
sS'jewelerr'
p1578
I1
sS'playoffs'
p1579
I1
sS'Barry'
p1580
I2
sS'filed'
p1581
I2
sS'infant'
p1582
I1
sS'egg-shape'
p1583
I1
sS'reassessing'
p1584
I1
sS'bright'
p1585
I1
sS'Reuters'
p1586
I2
sS'Liquified'
p1587
I1
sS'hack'
p1588
I1
sS'high-profile'
p1589
I3
sS'corner'
p1590
I1
sS'aggressive'
p1591
I1
sS'Ben'
p1592
I1
sS'data'
p1593
I5
sS'Rigoberto'
p1594
I1
sS'cheeseburgers'
p1595
I1
sS'ground'
p1596
I3
sS"father's"
p1597
I1
sS'We'
p1598
I2
sS'slow'
p1599
I1
sS'brutally'
p1600
I1
sS'agreements'
p1601
I1
sS'title'
p1602
I1
sS'daily'
p1603
I2
sS'Kansas'
p1604
I1
sS'3'
I1
sS'Wi'
p1605
I1
sS'only'
p1606
I7
sS'going'
p1607
I2
sS'black'
p1608
I1
sS'Sox'
p1609
I1
sS'sexual-harassment'
p1610
I1
sS'top-line'
p1611
I1
sS'cautioned'
p1612
I2
sS'Housing'
p1613
I1
sS'dispute'
p1614
I3
sS'ranking'
p1615
I2
sS'ite'
p1616
I1
sS'get'
p1617
I7
sS'hostage'
p1618
I1
sS'cannon'
p1619
I1
sS'Ewood'
p1620
I1
sS'Soundtrackttt'
p1621
I2
sS'cannot'
p1622
I2
sS'nearly'
p1623
I4
sS'lighter'
p1624
I1
sS'progress'
p1625
I1
sS'trade'
p1626
I6
sS'July'
p1627
I12
sS'celebrate'
p1628
I2
sS'prime'
p1629
I3
sS'reveal'
p1630
I1
sS'denting'
p1631
I1
sS'PI'
p1632
I1
sS'girl'
p1633
I1
sS'radar'
p1634
I1
sS'Bell'
p1635
I1
sS"you'll"
p1636
I1
sS'fainted'
p1637
I2
sS'morning'
p1638
I5
sS'Clendon'
p1639
I1
sS'interpersonal'
p1640
I1
sS'predicted'
p1641
I1
sS'worries'
p1642
I1
sS'marred'
p1643
I1
sS'where'
p1644
I5
sS'Geraint'
p1645
I1
sS'husband'
p1646
I1
sS'Aintree'
p1647
I1
sS'reveals'
p1648
I1
sS'declared'
p1649
I1
sS"Dawn's"
p1650
I1
sS'keyboard'
p1651
I1
sS"France's"
p1652
I1
sS'famine'
p1653
I1
sS'position'
p1654
I1
sS'college'
p1655
I1
sS'us'
p1656
I8
sS'collects'
p1657
I1
sS'surgery'
p1658
I1
sS'murdereded'
p1659
I1
sS'capitals'
p1660
I1
sS'Chestnut'
p1661
I1
sS'Stefan'
p1662
I1
sS'Johnson'
p1663
I1
sS'ride-hailing'
p1664
I3
sS'ways'
p1665
I3
sS'review'
p1666
I1
sS'Yates'
p1667
I1
sS'commitments'
p1668
I1
sS'anks'
p1669
I1
sS'eluded'
p1670
I1
sS'colours'
p1671
I1
sS'behind'
p1672
I6
sS'staffer'
p1673
I1
sS'between'
p1674
I8
sS'illiberal'
p1675
I1
sS'checks'
p1676
I1
sS'basis'
p1677
I1
sS'notice'
p1678
I1
sS'jobs'
p1679
I1
sS'parent'
p1680
I2
sS'fearless'
p1681
I1
sS"'Blue's"
p1682
I1
sS'doesnling'
p1683
I1
sS'killing'
p1684
I2
sS'blame'
p1685
I1
sS'LGBT'
p1686
I2
sS'ntempt'
p1687
I1
sS'Team'
p1688
I1
sS'article'
p1689
I2
sS'harshly'
p1690
I1
sS'cities'
p1691
I6
sS'come'
p1692
I3
sS'TODAY'
p1693
I1
sS'oust'
p1694
I3
sS'Hathaway'
p1695
I1
sS'rugby'
p1696
I2
sS'Smarter'
p1697
I1
sS'Jenners'
p1698
I1
sS'many'
p1699
I7
sS'23'
p1700
I1
sS"doesnBeast'"
p1701
I1
sS'according'
p1702
I2
sS'called'
p1703
I6
sS's'
I9
sS'Watford'
p1704
I1
sS'remake'
p1705
I1
sS'railway'
p1706
I1
sS'prequel'
p1707
I1
sS"can't"
p1708
I2
sS'deported'
p1709
I2
sS"'The"
p1710
I1
sS'among'
p1711
I4
sS'stretches'
p1712
I1
sS'Death'
p1713
I1
sS'madness'
p1714
I3
sS'cancer'
p1715
I1
sS'Sir'
p1716
I1
sS'reluctance'
p1717
I1
sS'pot'
p1718
I1
sS'Trilogy'
p1719
I1
sS'venues'
p1720
I1
sS'Note'
p1721
I3
sS'61'
p1722
I2
sS'stopover'
p1723
I1
sS'learning'
p1724
I2
sS'radicalized'
p1725
I2
sS'jeweller'
p1726
I1
sS'Pictured'
p1727
I1
sS'adults'
p1728
I1
sS'late'
p1729
I2
sS'Electric'
p1730
I1
sS'Beauty'
p1731
I1
sS'capable'
p1732
I1
sS'stretch'
p1733
I1
sS'mounting'
p1734
I1
sS'rebuild'
p1735
I1
sS'detected'
p1736
I1
sS'But'
p1737
I8
sS'mark'
p1738
I1
sS'peaceful'
p1739
I1
sS'Knee'
p1740
I1
sS'escalates'
p1741
I1
sS'Stonefire'
p1742
I1
sS'donler'
p1743
I1
sS'disclosed'
p1744
I1
sS'wants'
p1745
I1
sS'enable'
p1746
I2
sS'resistance'
p1747
I2
sS'connections'
p1748
I1
sS'laptops'
p1749
I1
sS'Luring'
p1750
I1
sS'dramatic'
p1751
I1
sS'minister'
p1752
I3
sS'Path'
p1753
I1
sS'regained'
p1754
I1
sS'suspected'
p1755
I2
sS'former'
p1756
I10
sS'captivity'
p1757
I1
sS'case'
p1758
I2
sS'Sub-Zero'
p1759
I1
sS'prompting'
p1760
I1
sS'processes'
p1761
I1
sS'UFO'
p1762
I1
sS'these'
p1763
I4
sS'chargesself-contradictory'
p1764
I1
sS'cash'
p1765
I1
sS'cast'
p1766
I1
sS'Causey'
p1767
I1
sS'mayors'
p1768
I1
sS'newspaper'
p1769
I1
sS'investigating'
p1770
I1
sS'Melissa'
p1771
I1
sS'Circuit'
p1772
I1
sS'Apologyg'
p1773
I1
sS'agnostic'
p1774
I1
sS'Moskin'
p1775
I1
sS'couples'
p1776
I1
sS'middle'
p1777
I2
sS'someone'
p1778
I1
sS'Celtic'
p1779
I1
sS'Billionaires'
p1780
I1
sS'Valencia'
p1781
I1
sS'Hidden'
p1782
I1
sS'Destin'
p1783
I1
sS'Keoghan'
p1784
I1
sS'decisively'
p1785
I1
sS'different'
p1786
I5
sS'perhaps'
p1787
I1
sS'Marchtizensssage'
p1788
I1
sS'author'
p1789
I1
sS'media'
p1790
I7
sS'tour'
p1791
I1
sS'shifts'
p1792
I1
sS'poetic'
p1793
I1
sS'speech'
p1794
I4
sS'buys'
p1795
I1
sS'struggling'
p1796
I1
sS'document'
p1797
I1
sS'Lanka'
p1798
I1
sS'derby'
p1799
I1
sS'week'
p1800
I12
sS"They're"
p1801
I1
sS'barbed'
p1802
I1
sS'oil'
p1803
I4
sS'edged'
p1804
I1
sS'I'
I12
sS'IS'
p1805
I1
sS'driver'
p1806
I1
sS'incarceration'
p1807
I1
sS'director'
p1808
I1
sS'average'
p1809
I1
sS'running'
p1810
I4
sS'investigates'
p1811
I1
sS'favorites'
p1812
I1
sS"'do"
p1813
I1
sS'Lich'
p1814
I1
sS'blockade'
p1815
I1
sS'charges'
p1816
I1
sS'Is'
p1817
I4
sS'constitutional'
p1818
I1
sS'It'
p1819
I14
sS'Golang'
p1820
I1
sS'TV'
p1821
I2
sS'severe'
p1822
I1
sS'without'
p1823
I2
sS'solve'
p1824
I1
sS'comes'
p1825
I2
sS'In'
p1826
I7
sS'very'
p1827
I2
sS'Nazi'
p1828
I3
sS'Port'
p1829
I1
sS'bodies'
p1830
I1
sS'If'
p1831
I3
sS'duty'
p1832
I1
sS'Reserveate'
p1833
I1
sS'United'
p1834
I8
sS'aborted'
p1835
I1
sS'being'
p1836
I12
sS'money'
p1837
I5
sS'fueling'
p1838
I2
sS'Maduro'
p1839
I1
sS'actress'
p1840
I1
sS'219'
p1841
I3
sS'foot'
p1842
I2
sS'violent'
p1843
I3
sS'Lions'
p1844
I1
sS'actor'
p1845
I1
sS'Jeremy'
p1846
I2
sS'hopeful'
p1847
I1
sS'captured'
p1848
I1
sS'halfway'
p1849
I1
sS'death'
p1850
I2
sS'Profitunt'
p1851
I1
sS'Her'
p1852
I2
sS'Zach'
p1853
I1
sS'seems'
p1854
I3
sS'Missile'
p1855
I1
sS'verse'
p1856
I1
sS'setting'
p1857
I1
sS'4'
I6
sS'Guantanamo'
p1858
I2
sS'extensive'
p1859
I3
sS'disrupt'
p1860
I1
sS'Travel'
p1861
I2
sS'real'
p1862
I2
sS'around'
p1863
I6
sS'rules'
p1864
I3
sS'Island'
p1865
I1
sS'specimen'
p1866
I1
sS'Headphones'
p1867
I1
sS'early'
p1868
I7
sS'forge'
p1869
I1
sS'inflation'
p1870
I2
sS'grid'
p1871
I1
sS'presidentJr'
p1872
I1
sS'confined'
p1873
I5
sS'world'
p1874
I10
sS'boycotted'
p1875
I1
sS'accepted'
p1876
I3
sS'ruled'
p1877
I1
sS'Pterodactyl'
p1878
I2
sS'Froome'
p1879
I1
sS'Wag'
p1880
I1
sS'penalised'
p1881
I1
sS'Show'
p1882
I1
sS"'Rainbow"
p1883
I1
sS'greeting'
p1884
I2
sS'government-backed'
p1885
I1
sS'facing'
p1886
I2
sS"London's"
p1887
I2
sS'Galvanized'
p1888
I1
sS'London'
p1889
I5
sS't'
I3
sS'always'
p1890
I2
sS'Western-backed'
p1891
I1
sS'Globe'
p1892
I1
sS'Before'
p1893
I4
sS'debut'
p1894
I4
sS'66'
p1895
I2
sS'Army'
p1896
I1
sS'West'
p1897
I10
sS'titan'
p1898
I1
sS'competition'
p1899
I1
sS'Mark'
p1900
I1
sS'Master'
p1901
I4
sS'New'
p1902
I11
sS'narrowed'
p1903
I1
sS'wrongly'
p1904
I1
sS'provided'
p1905
I2
sS'Hello'
p1906
I2
sS'Garcetti'
p1907
I1
sS'confirm'
p1908
I1
sS'Landrake'
p1909
I1
sS'Netflix'
p1910
I1
sS'unmatched'
p1911
I2
sS'Informations'
p1912
I2
sS'critical'
p1913
I1
sS'provides'
p1914
I2
sS'learningNew'
p1915
I1
sS'tainting'
p1916
I1
sS'content'
p1917
I1
sS'knife'
p1918
I1
sS'Daimler'
p1919
I1
sS'business'
p1920
I3
sS'seconds'
p1921
I1
sS'retains'
p1922
I1
sS'punched'
p1923
I1
sS'Scottish'
p1924
I1
sS'notable'
p1925
I1
sS'iconic'
p1926
I2
sS'Therapist'
p1927
I1
sS'antiquities'
p1928
I1
sS'broken'
p1929
I1
sS'Playing'
p1930
I1
sS'beaches'
p1931
I2
sS'open-source'
p1932
I1
sS'itto'
p1933
I1
sS'on'
p1934
I143
sS'son-in-law'
p1935
I1
sS'Trial'
p1936
I1
sS'of'
p1937
I253
sS'industry'
p1938
I3
sS'powered'
p1939
I1
sS'discussed'
p1940
I4
sS'drag'
p1941
I1
sS'Check'
p1942
I1
sS'escalating'
p1943
I1
sS'stand'
p1944
I1
sS'testimony'
p1945
I1
sS'discusses'
p1946
I1
sS'or'
p1947
I10
sS'road'
p1948
I1
sS'Story'
p1949
I1
sS'protests'
p1950
I4
sS'Crapser'
p1951
I1
sS'spreading'
p1952
I1
sS'lent'
p1953
I1
sS'signing'
p1954
I1
sS'Least'
p1955
I1
sS'airlines'
p1956
I1
sS'rolling'
p1957
I1
sS'involvement'
p1958
I3
sS'Paid'
p1959
I1
sS'compatibles'
p1960
I1
sS'apologize'
p1961
I1
sS'watchdog'
p1962
I1
sS'your'
p1963
I6
sS'T-shirts'
p1964
I1
sS'nationot'
p1965
I2
sS'Infinity'
p1966
I1
sS'her'
p1967
I9
sS'area'
p1968
I6
sS'there'
p1969
I6
sS'alleged'
p1970
I3
sS'start'
p1971
I3
sS'poured'
p1972
I1
sS'untapped'
p1973
I1
sS'lot'
p1974
I2
sS'nuclear-armed'
p1975
I1
sS'decisive'
p1976
I1
sS'bubble'
p1977
I1
sS'Obama'
p1978
I1
sS'revamped'
p1979
I1
sS'Emma'
p1980
I1
sS'complete'
p1981
I1
sS'enough'
p1982
I1
sS'J'
I3
sS'pitcher'
p1983
I1
sS'idea'
p1984
I4
sS"Britain's"
p1985
I2
sS'Elective'
p1986
I1
sS'Harry'
p1987
I2
sS'trying'
p1988
I6
sS'with'
p1989
I82
sS'featuring'
p1990
I1
sS'Duty'
p1991
I1
sS'hire'
p1992
I1
sS'fraud'
p1993
I1
sS'arranged'
p1994
I2
sS'Hales'
p1995
I1
sS'engage'
p1996
I1
sS'submitted'
p1997
I1
sS'House'
p1998
I5
sS'doesnit'
p1999
I1
sS'lawfully'
p2000
I1
sS'unveils'
p2001
I1
sS'Society'
p2002
I1
sS'Eddie'
p2003
I1
sS'criticised'
p2004
I1
sS'Grenfell'
p2005
I1
sS'agree'
p2006
I1
sS'misery'
p2007
I1
sS'strongly'
p2008
I1
sS'Allgemeine'
p2009
I3
sS'Wil'
p2010
I1
sS'citizenship'
p2011
I2
sS'USA'
p2012
I1
sS'babies'
p2013
I1
sS'Thursday'
p2014
I5
sS'an'
p2015
I55
sS'How'
p2016
I1
sS'as'
p2017
I64
sS'ar'
p2018
I2
sS'at'
p2019
I66
sS'Homeland'
p2020
I1
sS'ay'
p2021
I1
sS'controlled'
p2022
I1
sS'videon'
p2023
I1
sS'hospitals'
p2024
I1
sS'film'
p2025
I2
sS'cream'
p2026
I1
sS'again'
p2027
I2
sS'Reading'
p2028
I3
sS'llings'
p2029
I1
sS'Lives'
p2030
I1
sS'storage'
p2031
I1
sS"House's"
p2032
I1
sS'Dark'
p2033
I1
sS'intercontinental'
p2034
I2
sS'5'
I3
sS'comment'
p2035
I1
sS'you'
p2036
I14
sS'really'
p2037
I4
sS"president's"
p2038
I2
sS'At'
p2039
I8
sS'sprints'
p2040
I1
sS'Alex'
p2041
I1
sS'Vladimir'
p2042
I4
sS'separate'
p2043
I1
sS'students'
p2044
I1
sS'gutting'
p2045
I1
sS'k-magazined'
p2046
I1
sS"'Us"
p2047
I1
sS'offseason'
p2048
I1
sS'Ho4'
p2049
I1
sS'important'
p2050
I1
sS'CNN'
p2051
I4
sS'Bashar'
p2052
I1
sS'stocks'
p2053
I2
sS'pool'
p2054
I1
sS'BMG'
p2055
I1
sS'Mother-of-one'
p2056
I1
sS'individual'
p2057
I1
sS'Aubrey'
p2058
I1
sS'calls'
p2059
I1
sS'wife'
p2060
I1
sS'Runner'
p2061
I1
sS'unmitigated'
p2062
I1
sS'mantises'
p2063
I1
sS'76-year-old'
p2064
I1
sS"city's"
p2065
I1
sS'websites'
p2066
I1
sS'Wiz'
p2067
I1
sS'Likely'
p2068
I1
sS'passed'
p2069
I1
sS'u'
I1
sS'Syriater'
p2070
I1
sS'Year'
p2071
I1
sS'overseas'
p2072
I1
sS'Paperwhite'
p2073
I1
sS'wielding'
p2074
I1
sS'Canada'
p2075
I1
sS'all'
p2076
I20
sS'since'
p2077
I7
sS'ESPN'
p2078
I2
sS'maximum'
p2079
I1
sS'sluggers'
p2080
I1
sS'caused'
p2081
I2
sS'Tube'
p2082
I1
sS'lack'
p2083
I1
sS'Obamacare'
p2084
I2
sS'crosshairs'
p2085
I1
sS'donith'
p2086
I1
sS'month'
p2087
I8
sS'founded'
p2088
I1
sS'Martinez'
p2089
I1
sS'deadline'
p2090
I1
sS'Take'
p2091
I1
sS'hernia'
p2092
I1
sS'Var'
p2093
I2
sS'follow'
p2094
I1
sS'settlement'
p2095
I1
sS'children'
p2096
I2
sS'shattered'
p2097
I2
sS'glimpse'
p2098
I1
sS'Championship'
p2099
I2
sS"Canada's"
p2100
I1
sS'Keala'
p2101
I1
sS'hunting'
p2102
I1
sS'tw'
p2103
I1
sS'subjected'
p2104
I1
sS'ts'
p2105
I9
sS'opportunities'
p2106
I1
sS'to'
p2107
I255
sS'program'
p2108
I2
sS'scrambled'
p2109
I1
sS'preserved'
p2110
I3
sS'th'
p2111
I4
sS'barely'
p2112
I1
sS'lawmakers'
p2113
I3
sS'enjoying'
p2114
I3
sS'Menken'
p2115
I1
sS'sound'
p2116
I2
sS'belonging'
p2117
I1
sS'global'
p2118
I4
sS'parcel'
p2119
I1
sS'returning'
p2120
I1
sS'far'
p2121
I3
sS'horror'
p2122
I1
sS'Alaska'
p2123
I1
sS'saved'
p2124
I1
sS'focus'
p2125
I2
sS'GIF'
p2126
I1
sS"Lions'"
p2127
I1
sS'fan'
p2128
I1
sS'hatching'
p2129
I1
sS'got'
p2130
I2
sS'winning'
p2131
I3
sS"I'm"
p2132
I2
sS'dictatorship'
p2133
I1
sS"Don't"
p2134
I1
sS'--'
p2135
I13
sS'skeletal'
p2136
I1
sS'list'
p2137
I1
sS'Novak'
p2138
I1
sS'Fionn'
p2139
I1
sS'small'
p2140
I1
sS'Chinaifts'
p2141
I1
sS'programme'
p2142
I1
sS'Fir'
p2143
I1
sS"Minister's"
p2144
I1
sS'TSA'
p2145
I1
sS'past'
p2146
I3
sS'go'
p2147
I3
sS'rate'
p2148
I1
sS'design'
p2149
I1
sS'displays'
p2150
I1
sS'lawyer'
p2151
I10
sS'pass'
p2152
I4
sS'further'
p2153
I2
sS'East'
p2154
I1
sS'requiring'
p2155
I1
sS'investment'
p2156
I1
sS"Trump's"
p2157
I13
sS'what'
p2158
I17
sS'Korea'
p2159
I12
sS'41-year'
p2160
I2
sS'favor'
p2161
I1
sS'dirt'
p2162
I2
sS"Wild's"
p2163
I1
sS'anniversary'
p2164
I1
sS'version'
p2165
I1
sS'scientists'
p2166
I1
sS'Sloane'
p2167
I1
sS'public'
p2168
I5
sS'movement'
p2169
I1
sS'multinational'
p2170
I1
sS'Short'
p2171
I1
sS'Prosecutors'
p2172
I1
sS'recruits'
p2173
I1
sS'Charlie'
p2174
I1
sS'Proud'
p2175
I1
sS'answers'
p2176
I2
sS"nation's"
p2177
I1
sS'hours'
p2178
I5
sS'rigged'
p2179
I1
sS'civilians'
p2180
I1
sS'Frameworkhat'
p2181
I2
sS'Whole'
p2182
I3
sS'search'
p2183
I3
sS'prosecutors'
p2184
I1
sS'ahead'
p2185
I1
sS'cop'
p2186
I1
sS'pict'
p2187
I1
sS'Razanandrongobe'
p2188
I1
sS'repeal'
p2189
I2
sS'soldier'
p2190
I2
sS'social'
p2191
I3
sS'action'
p2192
I1
sS'Jared'
p2193
I1
sS'options'
p2194
I1
sS'Victor'
p2195
I1
sS'Kori'
p2196
I1
sS'S8'
p2197
I1
sS'followed'
p2198
I1
sS'ase'
p2199
I1
sS'family'
p2200
I7
sS'S3'
p2201
I1
sS'father'
p2202
I2
sS'Top'
p2203
I1
sS'screens'
p2204
I2
sS'ask'
p2205
I1
sS'mutant'
p2206
I1
sS'regimens'
p2207
I1
sS'intermediate-range'
p2208
I1
sS'trained'
p2209
I2
sS'Tom'
p2210
I7
sS'gunmen'
p2211
I1
sS'armed'
p2212
I2
sS'attendant'
p2213
I1
sS'emoji'
p2214
I1
sS'Europe'
p2215
I4
sS'archived'
p2216
I1
sS'Crash'
p2217
I2
sS'takes'
p2218
I2
sS'one-day'
p2219
I1
sS'contains'
p2220
I1
sS'Overall'
p2221
I1
sS'two'
p2222
I13
sS'Regex'
p2223
I1
sS'captain'
p2224
I1
sS'Mattachine'
p2225
I1
sS'Corp'
p2226
I6
sS'6'
I4
sS'Russian'
p2227
I21
sS'Picasso'
p2228
I1
sS'injury'
p2229
I2
sS'Meaningful'
p2230
I1
sS'Cory'
p2231
I1
sS'minor'
p2232
I2
sS'more'
p2233
I22
sS'teen'
p2234
I1
sS'diamond'
p2235
I1
sS'knows'
p2236
I1
sS'stylistic'
p2237
I1
sS'thereMaybe'
p2238
I1
sS'staggering'
p2239
I1
sS'Trumpure'
p2240
I1
sS'line'
p2241
I1
sS'Wyatt'
p2242
I1
sS'tested'
p2243
I1
sS'flag'
p2244
I1
sS'So'
p2245
I2
sS'broke'
p2246
I2
sS'known'
p2247
I3
sS'Homecoming'
p2248
I2
sS'wrestled'
p2249
I1
sS'helped'
p2250
I1
sS'institutions'
p2251
I1
sS'include'
p2252
I1
sS"season's"
p2253
I1
sS'science'
p2254
I2
sS'shelves'
p2255
I3
sS'entertainment'
p2256
I1
sS'Toronto'
p2257
I2
sS'remain'
p2258
I1
sS'Ino'
p2259
I1
sS'nine'
p2260
I2
sS'reshaping'
p2261
I5
sS'embrace'
p2262
I1
sS'playable'
p2263
I1
sS'male'
p2264
I2
sS'history'
p2265
I2
sS'Conference'
p2266
I1
sS'Ef'
p2267
I1
sS'IBM'
p2268
I1
sS'pushes'
p2269
I1
sS'rejuvenate'
p2270
I1
sS'dislikes'
p2271
I2
sS'states'
p2272
I4
sS'collision'
p2273
I1
sS'downloading'
p2274
I1
sS'Bros'
p2275
I1
sS'sense'
p2276
I3
sS'station'
p2277
I3
sS'Venezuelan'
p2278
I2
sS'simple'
p2279
I1
sS'firmly'
p2280
I1
sS'information'
p2281
I8
sS'needs'
p2282
I3
sS'court'
p2283
I4
sS'goal'
p2284
I1
sS'rather'
p2285
I1
sS'technology'
p2286
I1
sS'Wood'
p2287
I1
sS'iving'
p2288
I1
sS'Chandler'
p2289
I2
sS'hampered'
p2290
I1
sS'earnings'
p2291
I1
sS'possibly'
p2292
I1
sS'explains'
p2293
I1
sS'digital-first'
p2294
I1
sS'plant'
p2295
I1
sS'continues'
p2296
I2
sS'plans'
p2297
I6
sS'Israel'
p2298
I2
sS'Foreign'
p2299
I1
sS'Stateew'
p2300
I1
sS'Matter'
p2301
I1
sS'tries'
p2302
I1
sS'plane'
p2303
I1
sS'ambassador'
p2304
I4
sS'blood'
p2305
I1
sS'countering'
p2306
I1
sS'coming'
p2307
I4
sS'Swiss'
p2308
I1
sS'Syria'
p2309
I6
sS'response'
p2310
I1
sS'carmaker'
p2311
I2
sS'a'
I249
sS'Grammy-winning'
p2312
I1
sS'Everyone'
p2313
I1
sS'Belgrade'
p2314
I2
sS'Mexico'
p2315
I1
sS'tweeting'
p2316
I1
sS'jihadist'
p2317
I1
sS'campaign-style'
p2318
I1
sS'departure'
p2319
I1
sS'Deep'
p2320
I1
sS'rallied'
p2321
I1
sS'mislead'
p2322
I2
sS'Player'
p2323
I1
sS'Sean'
p2324
I2
sS'NSA'
p2325
I1
sS'banks'
p2326
I1
sS'Elaine'
p2327
I1
sS'dream'
p2328
I1
sS'playing'
p2329
I1
sS"that's"
p2330
I2
sS'What'
p2331
I2
sS'help'
p2332
I2
sS"don't"
p2333
I2
sS'cked'
p2334
I1
sS'Africans'
p2335
I1
sS'closeness'
p2336
I1
sS'mission'
p2337
I1
sS'Illinois'
p2338
I2
sS'held'
p2339
I2
sS'scientist'
p2340
I1
sS'through'
p2341
I6
sS"Holland's"
p2342
I2
sS'suffer'
p2343
I1
sS'its'
p2344
I32
sS'Texas'
p2345
I3
sS'features'
p2346
I3
sS'24'
p2347
I1
sS'Marco'
p2348
I1
sS'20'
p2349
I1
sS'21'
p2350
I1
sS'22'
p2351
I1
sS'shortstop'
p2352
I1
sS'assaulting'
p2353
I1
sS'AOL'
p2354
I1
sS'28'
p2355
I1
sS'Livenerracteron'
p2356
I1
sS'actually'
p2357
I4
sS'clashes'
p2358
I1
sS'environmentalism'
p2359
I1
sS'absence'
p2360
I1
sS'three-match'
p2361
I1
sS'systems'
p2362
I2
sS'Hamburg'
p2363
I6
sS'inquiry'
p2364
I1
sS'offensive'
p2365
I1
sS'might'
p2366
I2
sS"haven't"
p2367
I1
sS'Nokia-branded'
p2368
I1
sS'Stokes'
p2369
I1
sS'frogs'
p2370
I1
sS'good'
p2371
I4
sS'return'
p2372
I2
sS'roomful'
p2373
I1
sS'seeking'
p2374
I2
sS'food'
p2375
I1
sS'Schouler'
p2376
I1
sS'Michael'
p2377
I1
sS'Bay'
p2378
I2
sS'15am'
p2379
I1
sS'walls'
p2380
I1
sS'Vatican'
p2381
I1
sS'Reseda'
p2382
I3
sS'towering'
p2383
I1
sS'These'
p2384
I1
sS'Doty'
p2385
I1
sS'Bannon'
p2386
I2
sS'well-known'
p2387
I1
sS'shop'
p2388
I1
sS'hails'
p2389
I1
sS'fully'
p2390
I1
sS'Aliens'
p2391
I2
sS'Potter'
p2392
I2
sS'IPO'
p2393
I1
sS'evade'
p2394
I3
sS'inequality'
p2395
I2
sS'Council'
p2396
I2
sS'positions'
p2397
I1
sS'Ready'
p2398
I1
sS'found'
p2399
I7
sS'Liam'
p2400
I1
sS"isn't"
p2401
I2
sS'referred'
p2402
I1
sS'Pozzi'
p2403
I1
sS'everyone'
p2404
I1
sS'End'
p2405
I1
sS'weight'
p2406
I1
sS'generation'
p2407
I2
sS'house'
p2408
I3
sS'energy'
p2409
I2
sS'hard'
p2410
I2
sS'crash-bandicoot-n-sane-trilogy-9-minutes-of-coc'
p2411
I1
sS'Zelda'
p2412
I4
sS'each'
p2413
I3
sS'pirated'
p2414
I1
sS'Joseph'
p2415
I1
sS'Federer'
p2416
I1
sS'beyond'
p2417
I2
sS'event'
p2418
I4
sS'More'
p2419
I3
sS'Medium'
p2420
I1
sS'creditor'
p2421
I1
sS'missed'
p2422
I3
sS'19'
p2423
I1
sS'Firefighters'
p2424
I1
sS'surrounded'
p2425
I1
sS'misses'
p2426
I1
sS'Defense'
p2427
I3
sS'health'
p2428
I2
sS'7'
I7
sS'tactician'
p2429
I2
sS'issue'
p2430
I1
sS'nest'
p2431
I2
sS'Ukraine'
p2432
I1
sS'unelected'
p2433
I1
sS'fiber'
p2434
I2
sS'ast'
p2435
I2
sS'gut'
p2436
I1
sS'horse'
p2437
I1
sS'extraordinary'
p2438
I1
sS'Jordan'
p2439
I2
sS'included'
p2440
I1
sS'Now'
p2441
I1
sS'members'
p2442
I4
sS'backed'
p2443
I1
sS'ET'
p2444
I1
sS'teach'
p2445
I3
sS'u0026ndash'
p2446
I1
sS'beginning'
p2447
I1
sS'shot'
p2448
I1
sS'Yankees'
p2449
I1
sS'Trumpstment'
p2450
I1
sS'RMT'
p2451
I1
sS'launch'
p2452
I3
sS'Boston'
p2453
I2
sS'computers'
p2454
I2
sS'give-and-take'
p2455
I1
sS'success'
p2456
I1
sS'Walmsley'
p2457
I1
sS"year's"
p2458
I2
sS'Bron'
p2459
I2
sS'including'
p2460
I2
sS'threat'
p2461
I1
sS'dismissed'
p2462
I1
sS'Elon'
p2463
I1
sS'barber'
p2464
I1
sS'Marksove'
p2465
I1
sS'Hidalgo'
p2466
I1
sS'major'
p2467
I6
sS'A38'
p2468
I1
sS'graduate'
p2469
I1
sS'slipped'
p2470
I1
sS'prevent'
p2471
I1
sS'Oklahoma'
p2472
I2
sS'contender'
p2473
I1
sS'Konta'
p2474
I1
sS'number'
p2475
I1
sS'linking'
p2476
I1
sS'feet'
p2477
I2
sS'sisters'
p2478
I1
sS'smaller'
p2479
I2
sS'least'
p2480
I6
sS'Goes'
p2481
I1
sS'fees'
p2482
I2
sS'campground'
p2483
I1
sS'wages'
p2484
I3
sS'fiction'
p2485
I1
sS'Sirius'
p2486
I2
sS'Triggs-Hodge'
p2487
I1
sS'story'
p2488
I1
sS'tadpoles'
p2489
I1
sS'leverage'
p2490
I1
sS'rookies'
p2491
I1
sS'leading'
p2492
I2
sS'babyt'
p2493
I1
sS'porn'
p2494
I1
sS'comma'
p2495
I1
sS'militant'
p2496
I1
sS'Larry'
p2497
I1
sS'identity'
p2498
I1
sS'statement'
p2499
I3
sS'Delta'
p2500
I1
sS'rates'
p2501
I2
sS'hundred'
p2502
I1
sS'ancial'
p2503
I2
sS'GTA'
p2504
I1
sS'record-setting'
p2505
I1
sS'Helpful'
p2506
I2
sS'relationship'
p2507
I1
sS'trapped'
p2508
I1
sS'personalistic'
p2509
I1
sS'doctoro'
p2510
I1
sS'mentality'
p2511
I1
sS'immediate'
p2512
I1
sS'No'
p2513
I2
sS'treasurer'
p2514
I1
sS'part'
p2515
I1
sS'Darren'
p2516
I1
sS'Hanson'
p2517
I1
sS'focusing'
p2518
I1
sS'second-biggest'
p2519
I1
sS'believe'
p2520
I2
sS'four-day'
p2521
I1
sS'kind'
p2522
I1
sS'b'
I1
sS'imperiled'
p2523
I1
sS'double'
p2524
I1
sS'status'
p2525
I1
sS'warfa'
p2526
I1
sS'Senate'
p2527
I7
sS'determined'
p2528
I1
sS'supposed'
p2529
I1
sS'beneficial'
p2530
I1
sS'toward'
p2531
I1
sS'Letting'
p2532
I1
sS'shirts'
p2533
I1
sS'Alun'
p2534
I1
sS"Jong-nam's"
p2535
I1
sS'nominee'
p2536
I1
sS'alongside'
p2537
I2
sS'Connell'
p2538
I1
sS'Breath'
p2539
I6
sS'pedestrian'
p2540
I1
sS'substantial'
p2541
I1
sS'Julia'
p2542
I1
sS'aged'
p2543
I1
sS'orders'
p2544
I1
sS'sell'
p2545
I3
sS'States'
p2546
I8
sS'Norkett'
p2547
I1
sS'Power'
p2548
I1
sS'Ukrainian'
p2549
I2
sS'cave'
p2550
I1
sS'officers'
p2551
I3
sS'targets'
p2552
I1
sS'also'
p2553
I7
sS'drone'
p2554
I1
sS'Germany'
p2555
I4
sS'chairman'
p2556
I2
sS'Kim'
p2557
I3
sS'showcases'
p2558
I1
sS'finding'
p2559
I1
sS'Pyongyang'
p2560
I1
sS'With'
p2561
I7
sS'se'
p2562
I2
sS'play'
p2563
I2
sS'experienced'
p2564
I2
sS'electric'
p2565
I2
sS'Cauldrons'
p2566
I2
sS'eggs'
p2567
I2
sS'measures'
p2568
I1
sS'reach'
p2569
I2
sS'seasone'
p2570
I1
sS"Iraq's"
p2571
I1
sS'most'
p2572
I3
sS'virus'
p2573
I3
sS'charm'
p2574
I1
sS'70'
p2575
I1
sS'services'
p2576
I1
sS"Street's"
p2577
I1
sS'The'
p2578
I111
sS'-Russian'
p2579
I2
sS'approved'
p2580
I1
sS'Rhys'
p2581
I1
sS'appear'
p2582
I1
sS'Google'
p2583
I2
sS'mineral'
p2584
I1
sS'mobile'
p2585
I1
sS'Caretaker'
p2586
I1
sS'covet'
p2587
I1
sS'popularity'
p2588
I1
sS'EU'
p2589
I1
sS'traditional'
p2590
I1
sS'hints'
p2591
I3
sS'amphibian'
p2592
I1
sS'British'
p2593
I6
sS'charged'
p2594
I1
sS'attacking'
p2595
I1
sS'contest'
p2596
I1
sS'Turnies'
p2597
I1
sS'Hal'
p2598
I1
sS'rebels'
p2599
I1
sS'gold'
p2600
I2
sS'summer'
p2601
I2
sS'obligations'
p2602
I2
sS'Tillerson'
p2603
I4
sS'Explain'
p2604
I1
sS'league'
p2605
I1
sS'HBO'
p2606
I1
sS'alert'
p2607
I1
sS'expressed'
p2608
I1
sS'uctible'
p2609
I1
sS'stores'
p2610
I1
sS'Has'
p2611
I2
sS'find'
p2612
I4
sS'snags'
p2613
I1
sS'gangs'
p2614
I1
sS'Affordable'
p2615
I1
sS'access'
p2616
I1
sS'giant'
p2617
I5
sS'Thereord'
p2618
I1
sS'regulations'
p2619
I1
sS'northern'
p2620
I1
sS'Glastonbury'
p2621
I2
sS'EW'
p2622
I3
sS'Premiere'
p2623
I1
sS'writes'
p2624
I2
sS'writer'
p2625
I2
sS'distributed'
p2626
I1
sS'Heat'
p2627
I1
sS'Jr'
p2628
I7
sS'Labs'
p2629
I1
sS'failed'
p2630
I3
sS'Caterpillar'
p2631
I1
sS'Masterpiece'
p2632
I1
sS'pretty'
p2633
I2
sS'8'
I4
sS'distributes'
p2634
I3
sS'Prime'
p2635
I5
sS'sacking'
p2636
I1
sS'his'
p2637
I66
sS'hit'
p2638
I2
sS'gains'
p2639
I1
sS'strongholds'
p2640
I1
sS'banned'
p2641
I1
sS'capital'
p2642
I2
sS'Lakers'
p2643
I4
sS'famous'
p2644
I1
sS'While'
p2645
I2
sS'Xi'
p2646
I1
sS'preparing'
p2647
I2
sS'lifted'
p2648
I2
sS'shared'
p2649
I1
sS'Paxton'
p2650
I3
sS'during'
p2651
I13
sS'him'
p2652
I11
sS'dampened'
p2653
I1
sS'Olympic'
p2654
I2
sS'roles'
p2655
I1
sS'sources'
p2656
I2
sS'boost'
p2657
I1
sS'medicines'
p2658
I1
sS'generally'
p2659
I1
sS'Bluetooth'
p2660
I1
sS'Held'
p2661
I1
sS'investigate'
p2662
I1
sS'common'
p2663
I1
sS'activity'
p2664
I1
sS'Claimed'
p2665
I2
sS'kill'
p2666
I2
sS'river'
p2667
I1
sS'Whitehead'
p2668
I1
sS'set'
p2669
I8
sS'art'
p2670
I3
sS'reminisced'
p2671
I1
sS'For'
p2672
I1
sS'achieved'
p2673
I1
sS'intelligence'
p2674
I2
sS'activists'
p2675
I1
sS'Fox'
p2676
I2
sS'Hotz'
p2677
I2
sS'20million'
p2678
I1
sS'culture'
p2679
I1
sS'see'
p2680
I3
sS'defense'
p2681
I4
sS'Spickenreuther'
p2682
I1
sS'are'
p2683
I44
sS'bot4le'
p2684
I1
sS'close'
p2685
I4
sS'Firms'
p2686
I1
sS'locals'
p2687
I3
sS'Talbot'
p2688
I1
sS'reopening'
p2689
I1
sS'threats'
p2690
I1
sS'expert'
p2691
I1
sS'Terri'
p2692
I1
sS'movie'
p2693
I2
sS'Park'
p2694
I2
sS'strafed'
p2695
I1
sS'fans'
p2696
I1
sS'won'
p2697
I1
sS'envelopes'
p2698
I1
sS'Jordanian'
p2699
I1
sS'probably'
p2700
I1
sS'Costco'
p2701
I1
sS'pictured'
p2702
I4
sS'risks'
p2703
I2
sS'available'
p2704
I1
sS'solo'
p2705
I1
sS'creating'
p2706
I1
sS'missing'
p2707
I1
sS'targeted'
p2708
I2
sS'Could'
p2709
I2
sS'attention'
p2710
I1
sS'Florida'
p2711
I4
sS'Against'
p2712
I1
sS'incident'
p2713
I2
sS'Sane'
p2714
I1
sS'opposition'
p2715
I3
sS'African'
p2716
I1
sS'franchise'
p2717
I2
sS'hacking'
p2718
I1
sS'both'
p2719
I6
sS'c'
I1
sS'last'
p2720
I13
sS'restaurant'
p2721
I1
sS'Jaws'
p2722
I1
sS'annual'
p2723
I1
sS'foreign'
p2724
I2
sS'Steve'
p2725
I1
sS'XM'
p2726
I2
sS'became'
p2727
I1
sS'Mosul'
p2728
I9
sS'crushing'
p2729
I1
sS'Graham'
p2730
I2
sS'Haider'
p2731
I5
sS'ttempts'
p2732
I1
sS'millions'
p2733
I2
sS'vehicles'
p2734
I1
sS'liked'
p2735
I1
sS'danced'
p2736
I1
sS'point'
p2737
I5
sS'battery'
p2738
I1
sS'format'
p2739
I1
sS'Mr'
p2740
I3
sS'Altmann'
p2741
I1
sS'community'
p2742
I2
sS'alone'
p2743
I1
sS'agents'
p2744
I1
sS'shutdown'
p2745
I2
sS'Online'
p2746
I1
sS'raw'
p2747
I1
sS'War'
p2748
I1
sS'Rosa'
p2749
I1
sS'decline'
p2750
I1
sS'raise'
p2751
I3
sS'Citizensssage'
p2752
I1
sS'stamp'
p2753
I1
sS'Cars'
p2754
I1
sS'create'
p2755
I1
sS'political'
p2756
I6
sS'due'
p2757
I1
sS'strategy'
p2758
I1
sS'convicted'
p2759
I1
sS'whom'
p2760
I1
sS'secret'
p2761
I1
sS'California'
p2762
I1
sS"Ranieri's"
p2763
I1
sS'collected'
p2764
I1
sS'threaten'
p2765
I1
sS'test-launched'
p2766
I2
sS'territory'
p2767
I2
sS'meeting'
p2768
I20
sS'woke'
p2769
I1
sS'treatment'
p2770
I2
sS'firm'
p2771
I2
sS'lived'
p2772
I1
sS'flight'
p2773
I3
sS'champion'
p2774
I3
sS'web-slinging'
p2775
I1
sS'fire'
p2776
I13
sS'firefighters'
p2777
I5
sS'wet'
p2778
I1
sS'N'
I1
sS'moment'
p2779
I1
sS'usage'
p2780
I2
sS'Switch'
p2781
I3
sS'38'
p2782
I1
sS'determination'
p2783
I1
sS'representative'
p2784
I2
sS'prices'
p2785
I1
sS'domination'
p2786
I1
sS'wedding'
p2787
I1
sS'Starting'
p2788
I2
sS'wheeled'
p2789
I1
sS'gender'
p2790
I2
sS'Old'
p2791
I1
sS'look'
p2792
I4
sS'talking'
p2793
I2
sS'straight'
p2794
I2
sS'bill'
p2795
I5
sS'budget'
p2796
I3
sS'governor'
p2797
I3
sS'while'
p2798
I6
sS'kick'
p2799
I1
sS'behavior'
p2800
I1
sS'error'
p2801
I1
sS'theret'
p2802
I1
sS'animated'
p2803
I1
sS'31'
p2804
I2
sS'Market'
p2805
I2
sS'scheduled'
p2806
I1
sS'Qatar'
p2807
I1
sS'Italy'
p2808
I1
sS'century'
p2809
I2
sS'37'
p2810
I1
sS'Indians'
p2811
I1
sS'itself'
p2812
I2
sS'headway'
p2813
I1
sS'triple'
p2814
I1
sS'feese'
p2815
I1
sS'ready'
p2816
I2
sS'Elliott'
p2817
I1
sS'Denisova'
p2818
I1
sS'all-important'
p2819
I1
sS'at-bats'
p2820
I1
sS'Helmets'
p2821
I1
sS'confirms'
p2822
I1
sS'fate'
p2823
I1
sS'Manafort'
p2824
I1
sS'Gaby'
p2825
I1
sS'Indigenous'
p2826
I1
sS'chancellor'
p2827
I1
sS'9'
I4
sS'Palm'
p2828
I1
sS'advise'
p2829
I1
sS'failure'
p2830
I1
sS'higher'
p2831
I3
sS'showcased'
p2832
I1
sS'used'
p2833
I8
sS'lawyers'
p2834
I2
sS'Slugger'
p2835
I1
sS'bonus'
p2836
I1
sS'Cox'
p2837
I1
sS'defeat'
p2838
I1
sS'Podcasts'
p2839
I1
sS'Flack'
p2840
I1
sS'peacemaking'
p2841
I2
sS'levels'
p2842
I2
sS'uses'
p2843
I1
sS'cleaning'
p2844
I1
sS'residents'
p2845
I5
sS'predecessors'
p2846
I2
sS'recent'
p2847
I2
sS'Archie'
p2848
I1
sS'dark'
p2849
I4
sS'lower'
p2850
I3
sS"people'"
p2851
I1
sS'Carter'
p2852
I1
sS'Councils'
p2853
I2
sS'dancing'
p2854
I2
sS'docked'
p2855
I1
sS'spent'
p2856
I2
sS'analysis'
p2857
I6
sS'Oscars'
p2858
I1
sS'Rate'
p2859
I1
sS'Weekend'
p2860
I1
sS'Dederer'
p2861
I1
sS'machinery'
p2862
I2
sS'y'
I4
sS'visualizations'
p2863
I1
sS'Dennis'
p2864
I1
sS'know'
p2865
I7
sS'patient-led'
p2866
I1
sS'Living'
p2867
I1
sS'echoing'
p2868
I1
sS'Takes'
p2869
I1
sS'Defiant'
p2870
I1
sS'Klux'
p2871
I1
sS'named'
p2872
I2
sS'All-Star'
p2873
I3
sS'Virginia'
p2874
I1
sS'Andrew'
p2875
I3
sS'Fans'
p2876
I1
sS'plagued'
p2877
I1
sS'questions'
p2878
I1
sS'Internet'
p2879
I3
sS'retired'
p2880
I1
sS'alternative'
p2881
I1
sS'lik'
p2882
I1
sS'injuries'
p2883
I1
sS'ministry'
p2884
I1
sS'Bibi'
p2885
I1
sS'Kuwait'
p2886
I1
sS'cut'
p2887
I1
sS'acquiring'
p2888
I1
sS'majority'
p2889
I1
sS'advisers'
p2890
I1
sS'workers'
p2891
I2
sS'Nokia'
p2892
I1
sS'education'
p2893
I1
sS'Bang'
p2894
I1
sS"Sparrow's"
p2895
I1
sS"Cycling's"
p2896
I1
sS'source'
p2897
I1
sS'Christopher'
p2898
I1
sS'location'
p2899
I1
sS'nfirst'
p2900
I1
sS'Journalistence'
p2901
I1
sS'impoverished'
p2902
I1
sS'Avengers'
p2903
I1
sS'useless'
p2904
I1
sS'On'
p2905
I2
sS'customers'
p2906
I4
sS'march'
p2907
I1
sS'Worldpay'
p2908
I1
sS'self-disclosure'
p2909
I2
sS'then-campaign'
p2910
I1
sS'couple'
p2911
I3
sS'health-overhaul'
p2912
I1
sS'Air'
p2913
I1
sS'self-contradictory'
p2914
I1
sS'DOD'
p2915
I1
sS'Antigua'
p2916
I1
sS'projects'
p2917
I1
sS'helpful'
p2918
I1
sS'Pakistan'
p2919
I1
sS'Cincinnati'
p2920
I1
sS'd'
I4
sS"ain't"
p2921
I1
sS'u0026D'
p2922
I2
sS'message'
p2923
I2
sS'commanders'
p2924
I2
sS'Whatever'
p2925
I2
sS'consensus'
p2926
I1
sS'crawled'
p2927
I1
sS'popular'
p2928
I3
sS'G-20'
p2929
I3
sS'cookout'
p2930
I1
sS'disorder'
p2931
I1
sS'essential'
p2932
I1
sS'circles'
p2933
I1
sS'Management'
p2934
I1
sS'33rd'
p2935
I1
sS'Schiff'
p2936
I1
sS'Gulf'
p2937
I1
sS'ignored'
p2938
I1
sS'creation'
p2939
I1
sS'some'
p2940
I12
sS'back'
p2941
I9
sS'streaming'
p2942
I1
sS'added'
p2943
I2
sS'Andy'
p2944
I2
sS'sight'
p2945
I2
sS'probe'
p2946
I1
sS'Ways'
p2947
I1
sS'newsletter'
p2948
I1
sS'fanfare'
p2949
I1
sS'ourselves'
p2950
I1
sS'delivered'
p2951
I1
sS'Remasters'
p2952
I1
sS'Mostly'
p2953
I1
sS'contacts'
p2954
I4
sS'Fire'
p2955
I3
sS'Malkiewicz'
p2956
I1
sS'decision'
p2957
I3
sS'Foods'
p2958
I3
sS'per'
p2959
I3
sS'seller'
p2960
I1
sS'adoptive'
p2961
I2
sS'prom'
p2962
I1
sS'civilization'
p2963
I1
sS'tends'
p2964
I1
sS'Fyre'
p2965
I1
sS"Here's"
p2966
I4
sS'either'
p2967
I5
sS'be'
p2968
I33
sS'run'
p2969
I2
sS'Look'
p2970
I1
sS'300'
p2971
I3
sS'hypocritical'
p2972
I1
sS'Kurdish-Arab'
p2973
I1
sS'agreement'
p2974
I4
sS'Madagascarone'
p2975
I1
sS'Times'
p2976
I3
sS'feelings'
p2977
I1
sS'bu'
p2978
I1
sS'step'
p2979
I2
sS'Fs'
p2980
I1
sS'Russia'
p2981
I8
sS'Deadpool'
p2982
I1
sS'August'
p2983
I1
sS'roundup'
p2984
I1
sS'Sanchez'
p2985
I1
sS'Jimmy'
p2986
I1
sS'anything'
p2987
I1
sS'Voters'
p2988
I1
sS'Rod'
p2989
I1
sS'Chief'
p2990
I1
sS'drama'
p2991
I1
sS'Eoin'
p2992
I1
sS'range'
p2993
I1
sS'regular'
p2994
I1
sS'Committee'
p2995
I1
sS'Apologize'
p2996
I1
sS'hatred'
p2997
I1
sS'Captain'
p2998
I1
sS'bankPresident'
p2999
I1
sS'inte'
p3000
I1
sS'computational'
p3001
I1
sS'Trumpikely'
p3002
I1
sS'plenty'
p3003
I1
sS'terrorists'
p3004
I1
sS'into'
p3005
I23
sS'conceded'
p3006
I1
sS'nse'
p3007
I1
sS'servers'
p3008
I2
sS'Their'
p3009
I2
sS"'It"
p3010
I1
sS'm-10'
p3011
I2
sS'lesson'
p3012
I1
sS'sports'
p3013
I2
sS'Rocket'
p3014
I1
sS'bankruptcy'
p3015
I2
sS'Danaher'
p3016
I1
sS'computer'
p3017
I2
sS'Awkward'
p3018
I1
sS'NAFTA'
p3019
I1
sS'Vulture'
p3020
I1
sS'long'
p3021
I6
sS'Anthony'
p3022
I2
sS'Eva'
p3023
I1
sS'vendors'
p3024
I1
sS'infected'
p3025
I3
sS'douse'
p3026
I1
sS'forward'
p3027
I1
sS'long-planned'
p3028
I1
sS'Ross'
p3029
I1
sS'Cancelling'
p3030
I1
sS'blueprint'
p3031
I1
sS'Bryan'
p3032
I1
sS'himself'
p3033
I5
sS'elsewhere'
p3034
I1
sS'wild-card'
p3035
I1
sS'talked'
p3036
I1
sS'poster'
p3037
I1
sS'collapsed'
p3038
I1
sS'Wedding'
p3039
I1
sS"Boston's"
p3040
I1
sS'Attorney'
p3041
I3
sS"ns'"
p3042
I1
sS't-shirt'
p3043
I1
sS'boys'
p3044
I1
sS'game'
p3045
I7
sS'Adrian'
p3046
I1
sS'inclu'
p3047
I1
sS'episode'
p3048
I1
sS'Moonlight'
p3049
I1
sS'raising'
p3050
I1
sS'posted'
p3051
I1
sS"I'll"
p3052
I1
sS'Beijing'
p3053
I2
sS'Irish'
p3054
I1
sS'Jeff'
p3055
I9
sS'Khadr'
p3056
I1
sS'Indoor'
p3057
I2
sS'pessimism'
p3058
I1
sS'up'
p3059
I14
sS'Murray'
p3060
I2
sS'ur'
p3061
I2
sS'un'
p3062
I1
sS'exploration'
p3063
I1
sS'prosecutor'
p3064
I1
sS"Dynamics'"
p3065
I1
sS'Necromancer'
p3066
I2
sS'fried'
p3067
I1
sS'similar'
p3068
I2
sS'clear'
p3069
I5
sS'precipitated'
p3070
I2
sS'Nazim'
p3071
I1
sS'flop'
p3072
I1
sS'nationalist'
p3073
I2
sS'm'
I7
sS'doesn'
p3074
I1
sS'Terminal'
p3075
I1
sS'To'
p3076
I1
sS'associates'
p3077
I2
sS'curb'
p3078
I1
sS'mainland'
p3079
I1
sS'Snap'
p3080
I1
sS'rally'
p3081
I4
sS'Haberstroh'
p3082
I1
sS'Fabio'
p3083
I1
sS'Cain'
p3084
I2
sS'rehab'
p3085
I1
sS'rainbow'
p3086
I1
sS'ancestors'
p3087
I1
sS'puzzling'
p3088
I1
sS'May'
p3089
I2
sS'malicious'
p3090
I1
sS'ofonent'
p3091
I1
sS'teams'
p3092
I1
sS'application'
p3093
I1
sS'record-breaking'
p3094
I1
sS'electrical'
p3095
I1
sS'Bourelly'
p3096
I1
sS'income'
p3097
I1
sS'department'
p3098
I4
sS'mammoth'
p3099
I1
sS'Relying'
p3100
I1
sS'draw'
p3101
I1
sS'users'
p3102
I1
sS'AG'
p3103
I1
sS'scandals'
p3104
I2
sS'problems'
p3105
I3
sS'Mike'
p3106
I1
sS'visits'
p3107
I1
sS'prepared'
p3108
I1
sS'helping'
p3109
I2
sS'AP'
p3110
I2
sS'militants'
p3111
I3
sS'Derby'
p3112
I1
sS'Jong-un'
p3113
I2
sS'Documentary'
p3114
I1
sS'sides'
p3115
I1
sS'Jawbone'
p3116
I1
sS'ago'
p3117
I7
sS'urged'
p3118
I1
sS'Beginning'
p3119
I1
sS'e'
I7
sS'algorithm'
p3120
I1
sS'vice'
p3121
I1
sS'age'
p3122
I2
sS'built'
p3123
I1
sS'Claire'
p3124
I1
sS'walked'
p3125
I2
sS'An'
p3126
I10
sS'As'
p3127
I5
sS'summit'
p3128
I7
sS'2007'
p3129
I1
sS'2005'
p3130
I1
sS'international'
p3131
I2
sS'2008'
p3132
I2
sS'once'
p3133
I1
sS'Bankrupt'
p3134
I1
sS'G20'
p3135
I6
sS'issued'
p3136
I1
sS'Jim'
p3137
I1
sS'results'
p3138
I1
sS'Jerseyie'
p3139
I1
sS'announ'
p3140
I1
sS'legal'
p3141
I4
sS'Department'
p3142
I9
sS'shrugged'
p3143
I1
sS'Isle'
p3144
I2
sS'issues'
p3145
I4
sS'seemed'
p3146
I1
sS'Trumpand'
p3147
I1
sS'Award'
p3148
I2
sS'Union'
p3149
I1
sS'citing'
p3150
I1
sS'Montana'
p3151
I1
sS'newspalities'
p3152
I1
sS'blaze'
p3153
I3
sS'Trials'
p3154
I1
sS'Not'
p3155
I3
sS'fatal'
p3156
I1
sS'unsettling'
p3157
I1
sS'sent'
p3158
I1
sS'brigade'
p3159
I1
sS"'Spider-Man"
p3160
I1
sS'pay'
p3161
I3
sS'confirmation'
p3162
I3
sS'seized'
p3163
I1
sS'Holland'
p3164
I1
sS'Canadian'
p3165
I2
sS'itning'
p3166
I1
sS'unbeaten'
p3167
I1
sS'mour'
p3168
I1
sS'vibrator'
p3169
I1
sS'putting'
p3170
I1
sS'high-voltage'
p3171
I2
sS'Tobin'
p3172
I1
sS'entire'
p3173
I2
sS'incoherent'
p3174
I1
sS'exits'
p3175
I2
sS'transmission'
p3176
I1
sS'experiencing'
p3177
I1
sS'notes'
p3178
I1
sS'f'
I3
sS'fewer'
p3179
I2
sS'damning'
p3180
I1
sS'deals'
p3181
I2
sS'Talking'
p3182
I1
sS'race'
p3183
I2
sS"week's"
p3184
I2
sS'three-judge'
p3185
I1
sS'populism'
p3186
I1
sS'ceasefire'
p3187
I2
sS'originally'
p3188
I1
sS'Neanderthal'
p3189
I1
sS'sifting'
p3190
I2
sS"Earhart's"
p3191
I1
sS'Bayona'
p3192
I1
sS'queer'
p3193
I1
sS'wrestling'
p3194
I1
sS'licensed'
p3195
I1
sS'State'
p3196
I17
sS'beach'
p3197
I2
sS'video'
p3198
I4
sS'traveling'
p3199
I1
sS'uncomfortable'
p3200
I1
sS'brokered'
p3201
I1
sS'plays'
p3202
I2
sS'power'
p3203
I6
sS'showcase'
p3204
I2
sS'wore'
p3205
I1
sS'wireframe'
p3206
I1
sS'Alan'
p3207
I1
sS'networks'
p3208
I1
sS'cell'
p3209
I1
sS'Boys'
p3210
I1
sS'experiment'
p3211
I1
sS'eating'
p3212
I2
sS'jurisdiction'
p3213
I1
sS'sixth'
p3214
I1
sS'Video'
p3215
I1
sS'firms'
p3216
I1
sS'America'
p3217
I2
sS'Hong'
p3218
I1
sS'Former'
p3219
I2
sS'body'
p3220
I3
sS'impact'
p3221
I1
sS'led'
p3222
I3
sS'pushing'
p3223
I1
sS'punch'
p3224
I1
sS'delivering'
p3225
I1
sS'Heintz'
p3226
I1
sS'growing'
p3227
I1
sS'les'
p3228
I1
sS'others'
p3229
I3
sS'IGN'
p3230
I2
sS'Pence'
p3231
I1
sS'arrive'
p3232
I1
sS'talent'
p3233
I1
sS'Chinese'
p3234
I1
sS'Premiership'
p3235
I1
sS'receive'
p3236
I2
sS'involved'
p3237
I3
sS'agoarksove'
p3238
I2
sS'30'
p3239
I2
sS'shades'
p3240
I1
sS'leaving'
p3241
I1
sS'suggests'
p3242
I1
sS'resulting'
p3243
I1
sS'Palo'
p3244
I1
sS'nervous'
p3245
I1
sS'climb'
p3246
I1
sS'makes'
p3247
I5
sS'involves'
p3248
I2
sS'Staff'
p3249
I1
sS'tunnel'
p3250
I1
sS'showing'
p3251
I1
sS'apple'
p3252
I1
sS'Doctor'
p3253
I1
sS'win'
p3254
I4
sS'app'
p3255
I1
sS'private'
p3256
I1
sS'scaled'
p3257
I1
sS'Nick'
p3258
I2
sS'French'
p3259
I1
sS'dumbest'
p3260
I1
sS'apply'
p3261
I1
sS'standing'
p3262
I1
sS'use'
p3263
I3
sS'cheered'
p3264
I1
sS'from'
p3265
I54
sS'stream'
p3266
I1
sS'recalling'
p3267
I1
sS'whipping'
p3268
I1
sS'deos'
p3269
I1
sS'flights'
p3270
I1
sS'congratulated'
p3271
I2
sS'next'
p3272
I2
sS'few'
p3273
I4
sS'camera'
p3274
I1
sS'Hard'
p3275
I1
sS'Fi'
p3276
I1
sS'themselves'
p3277
I1
sS'stage'
p3278
I1
sS'Mattek-Sands'
p3279
I2
sS'upcoming'
p3280
I2
sS'baffled'
p3281
I1
sS'started'
p3282
I5
sS'Jack'
p3283
I2
sS'Launch'
p3284
I1
sS'occurred'
p3285
I2
sS'missile'
p3286
I10
sS'grades'
p3287
I1
sS'Hodson'
p3288
I1
sS'DFJ'
p3289
I1
sS'Growing'
p3290
I1
sS'minions'
p3291
I1
sS'charity'
p3292
I1
sS'high'
p3293
I2
sS'account'
p3294
I2
sS'sanctions'
p3295
I1
sS'this'
p3296
I22
sS'challenge'
p3297
I2
sS'when'
p3298
I8
sS'insists'
p3299
I3
sS'Pedestrian'
p3300
I1
sS'Birmingham'
p3301
I1
sS"Jenkins'"
p3302
I1
sS'island'
p3303
I1
sS'meet'
p3304
I2
sS'closing'
p3305
I2
sS'Nevada'
p3306
I1
sS'proof'
p3307
I1
sS'control'
p3308
I4
sS"'We"
p3309
I1
sS'Israeli'
p3310
I1
sS'violence'
p3311
I1
sS'Police'
p3312
I5
sS'unveiled'
p3313
I1
sS'Tupac'
p3314
I1
sS'providers'
p3315
I1
sS'process'
p3316
I1
sS'tax'
p3317
I1
sS'wealthy'
p3318
I2
sS'escaped'
p3319
I2
sS'Answered'
p3320
I2
sS'villain'
p3321
I1
sS'pulling'
p3322
I3
sS'something'
p3323
I1
sS'Party'
p3324
I2
sS'Policy'
p3325
I1
sS'prowess'
p3326
I1
sS'heari'
p3327
I1
sS'Trade'
p3328
I1
sS'self-driving'
p3329
I1
sS'Australian'
p3330
I1
sS'native'
p3331
I1
sS'malware'
p3332
I2
sS'pure'
p3333
I1
sS'helps'
p3334
I1
sS'UKirk'
p3335
I1
sS'Astros'
p3336
I1
sS'six'
p3337
I1
sS'poetry'
p3338
I1
sS'regions'
p3339
I1
sS'extended'
p3340
I1
sS'winners'
p3341
I2
sS'fidgeting'
p3342
I1
sS'NHS'
p3343
I1
sS"China's"
p3344
I1
sS'instead'
p3345
I1
sS'intelligent'
p3346
I1
sS'memoir'
p3347
I1
sS'sim'
p3348
I1
sS'watery'
p3349
I1
sS'hurdles'
p3350
I1
sS'financ'
p3351
I1
sS'battered'
p3352
I1
sS'waters'
p3353
I1
sS'underway'
p3354
I1
sS'peace'
p3355
I2
sS'Alexis'
p3356
I1
sS'Mrs'
p3357
I1
sS'permanent'
p3358
I1
sS'Putin'
p3359
I9
sS'ties'
p3360
I1
sS'spelling'
p3361
I2
sS'Eckersley'
p3362
I1
sS'Sessi'
p3363
I1
sS'Joey'
p3364
I1
sS'Uber'
p3365
I7
sS'Apple'
p3366
I1
sS'arduous'
p3367
I1
sS'robot'
p3368
I1
sS'One'
p3369
I3
sS'chief'
p3370
I3
sS'advocates'
p3371
I1
sS'agenda'
p3372
I1
sS'healthcare'
p3373
I3
sS'Really'
p3374
I1
sS'counted'
p3375
I1
sS"Zealand's"
p3376
I1
sS'longest'
p3377
I2
sS'cease-fire'
p3378
I1
sS'Wilson'
p3379
I1
sS'evolutionary'
p3380
I1
sS'aimed'
p3381
I1
sS'producer'
p3382
I1
sS'Kris'
p3383
I1
sS'Cubs'
p3384
I1
sS'move'
p3385
I2
sS'Minnesota'
p3386
I1
sS'alliance'
p3387
I1
sS"won't"
p3388
I2
sS'looks'
p3389
I1
sS'horns'
p3390
I1
sS'galaxy'
p3391
I1
sS'perfect'
p3392
I1
sS'video-gamers'
p3393
I2
sS'Multiple'
p3394
I1
sS'Serena'
p3395
I1
sS'ughts'
p3396
I1
sS'send'
p3397
I1
sS'American'
p3398
I6
sS'labor'
p3399
I1
sS'Director'
p3400
I2
sS'outed'
p3401
I1
sS'Championships'
p3402
I5
sS'Doyle'
p3403
I1
sS'Dyi'
p3404
I1
sS'nTo'
p3405
I1
sS'2014'
p3406
I4
sS'2017'
p3407
I6
sS'holiday'
p3408
I2
sS'once-common'
p3409
I1
sS'image'
p3410
I1
sS'ly'
p3411
I4
sS'Dubai'
p3412
I2
sS'Hawks'
p3413
I1
sS'crash'
p3414
I4
sS'greater'
p3415
I2
sS'later'
p3416
I1
sS'Miami'
p3417
I2
sS'auto'
p3418
I3
sS'material'
p3419
I2
sS'conductors'
p3420
I1
sS'earn'
p3421
I2
sS'disrupted'
p3422
I2
sS'Hosts'
p3423
I1
sS'Can'
p3424
I1
sS'hands'
p3425
I2
sS'Venus'
p3426
I2
sS'assets'
p3427
I2
sS'investor'
p3428
I1
sS'day'
p3429
I8
sS'presidential'
p3430
I2
sS'Summer'
p3431
I1
sS'Supreme'
p3432
I3
sS'Natural'
p3433
I1
sS'San'
p3434
I2
sS'Tayyip'
p3435
I1
sS'fundraiser'
p3436
I1
sS'mysterious'
p3437
I1
sS'Gard'
p3438
I2
sS'Lamby'
p3439
I1
sS'unpredictable'
p3440
I1
sS'mode'
p3441
I2
sS'shortage'
p3442
I1
sS'rising'
p3443
I1
sS'bills'
p3444
I1
sS'Over'
p3445
I1
sS'Ghost'
p3446
I1
sS'exacerbated'
p3447
I1
sS'From'
p3448
I10
sS'determine'
p3449
I2
sS'Consumers'
p3450
I1
sS'doing'
p3451
I1
sS'globe'
p3452
I1
sS'700'
p3453
I1
sS'product'
p3454
I1
sS'related'
p3455
I1
sS'fraught'
p3456
I1
sS'Wolverine'
p3457
I1
sS'society'
p3458
I1
sS'88'
p3459
I1
sS'variety'
p3460
I1
sS'Which'
p3461
I1
sS'our'
p3462
I2
sS'restricted'
p3463
I1
sS'firefights'
p3464
I1
sS'sexual'
p3465
I1
sS'special'
p3466
I1
sS'out'
p3467
I21
sS'matt'
p3468
I1
sS'Noise'
p3469
I1
sS'140'
p3470
I1
sS"'"
I5
sS'Rio'
p3471
I1
sS'CEO'
p3472
I2
sS'announces'
p3473
I1
sS'defend'
p3474
I1
sS'foreign-born'
p3475
I1
sS'Agreement'
p3476
I1
sS'amassed'
p3477
I1
sS'critics'
p3478
I1
sS'mate'
p3479
I1
sS'Backlit'
p3480
I1
sS'Uran'
p3481
I1
sS'supports'
p3482
I1
sS'Think3'
p3483
I1
sS'announced'
p3484
I3
sS'ree'
p3485
I1
sS'achievements'
p3486
I1
sS'arrested'
p3487
I1
sS'Erdogan'
p3488
I1
sS'This'
p3489
I13
sS'WASHINGTON'
p3490
I1
sS'acked'
p3491
I1
sS'completely'
p3492
I1
sS'ect'
p3493
I1
sS'collection'
p3494
I1
sS'Gun'
p3495
I1
sS'regulatory'
p3496
I1
sS'Senator'
p3497
I1
sS'Watchtower'
p3498
I1
sS'allies'
p3499
I1
sS'prepare'
p3500
I1
sS'g'
I3
sS'could'
p3501
I9
sS'1981'
p3502
I2
sS'put'
p3503
I3
sS'Arsenal'
p3504
I1
sS'times'
p3505
I4
sS'counterpart'
p3506
I2
sS'surgeries'
p3507
I1
sS'length'
p3508
I1
sS'Wildcats'
p3509
I1
sS'Benjamin'
p3510
I1
sS'retail'
p3511
I1
sS'Franchises'
p3512
I1
sS'David'
p3513
I1
sS'Jinping'
p3514
I1
sS'respond'
p3515
I1
sS'Hotel'
p3516
I1
sS'Bundles'
p3517
I1
sS'scene'
p3518
I2
sS'adversarial'
p3519
I1
sS'type'
p3520
I1
sS'signify'
p3521
I1
sS'quality'
p3522
I1
sS'reliable'
p3523
I2
sS'ected'
p3524
I2
sS'postseason'
p3525
I1
sS'Boris'
p3526
I1
sS"you're"
p3527
I2
sS'ancient'
p3528
I1
sS'North'
p3529
I12
sS'Adrienne'
p3530
I1
sS'BIOS'
p3531
I1
sS'unknown'
p3532
I2
sS'chased'
p3533
I1
sS'system'
p3534
I5
sS'relations'
p3535
I1
sS'near-total'
p3536
I1
sS'priority'
p3537
I1
sS'their'
p3538
I36
sS'attack'
p3539
I3
sS'Klan'
p3540
I2
sS'sian'
p3541
I1
sS'travelled'
p3542
I1
sS'Iraq'
p3543
I2
sS'Pelosi'
p3544
I1
sS'final'
p3545
I5
sS'painful'
p3546
I1
sS'enforcement'
p3547
I2
sS'stars'
p3548
I3
sS'environmental'
p3549
I1
sS'R'
I3
sS'Ku'
p3550
I1
sS'Democratic'
p3551
I2
sS'elite'
p3552
I1
sS'observed'
p3553
I1
sS'swindled'
p3554
I1
sS'warfare'
p3555
I4
sS'counteract'
p3556
I1
sS'boring'
p3557
I1
sS'Wii'
p3558
I1
sS'depends'
p3559
I2
sS'Liberatio'
p3560
I1
sS'limiting'
p3561
I1
sS'politics'
p3562
I3
sS'compensation'
p3563
I1
sS'rbon'
p3564
I2
sS'loves'
p3565
I2
sS'visited'
p3566
I1
sS'Peter'
p3567
I1
sS'steep'
p3568
I1
sS'Macau'
p3569
I1
sS'manxtremists'
p3570
I2
sS'false'
p3571
I2
sS'recuse'
p3572
I2
sS'lines'
p3573
I1
sS'half'
p3574
I2
sS'liner'
p3575
I1
sS'tonight'
p3576
I1
sS'buy'
p3577
I1
sS'defending'
p3578
I1
sS'have'
p3579
I35
sS'need'
p3580
I4
sS'st'
p3581
I1
sS'linked'
p3582
I1
sS'returnees'
p3583
I1
sS'continents'
p3584
I1
sS'Isabel'
p3585
I1
sS'documents'
p3586
I5
sS"let's"
p3587
I1
sS'com'
p3588
I1
sS'Airways'
p3589
I1
sS'recap'
p3590
I1
sS'After'
p3591
I9
sS'able'
p3592
I3
sS'hangover'
p3593
I1
sS'emerged'
p3594
I1
sS'which'
p3595
I7
sS'Radio'
p3596
I2
sS'Siberia'
p3597
I1
sS'toughest'
p3598
I2
sS'worldwide'
p3599
I2
sS'Builds'
p3600
I2
sS'combat'
p3601
I1
sS'who'
p3602
I22
sS'3-pointers'
p3603
I1
sS'Titanic'
p3604
I2
sS'retooling'
p3605
I1
sS'Dodgers'
p3606
I1
sS'funding'
p3607
I2
sS'demise'
p3608
I1
sS'cracking'
p3609
I1
sS'prisoner'
p3610
I1
sS'much-anticipated'
p3611
I1
sS'why'
p3612
I3
sS'Reserve'
p3613
I2
sS'cellphone'
p3614
I1
sS'scrambles'
p3615
I1
sS'Neanderthals'
p3616
I2
sS'sweeping'
p3617
I1
sS'Lock'
p3618
I1
sS'gather'
p3619
I1
sS'stronger'
p3620
I2
sS'wiping'
p3621
I1
sS'Pop'
p3622
I1
sS'face'
p3623
I3
sS'High'
p3624
I1
sS'Donald'
p3625
I39
sS'lowered'
p3626
I1
sS'400m'
p3627
I1
sS'pictures'
p3628
I2
sS'occasion'
p3629
I1
sS'Saturday'
p3630
I9
sS'fact'
p3631
I1
sS'Liftoffrumpt'
p3632
I2
sS'recess'
p3633
I2
sS'impish'
p3634
I1
sS'chances'
p3635
I2
sS'text'
p3636
I1
sS'agreed'
p3637
I4
sS'bring'
p3638
I2
sS'Under'
p3639
I1
sS'soldiers'
p3640
I1
sS'fear'
p3641
I1
sS'high-level'
p3642
I1
sS'feat'
p3643
I1
sS'socialist'
p3644
I1
sS'staff'
p3645
I1
sS'nge'
p3646
I2
sS'taps'
p3647
I1
sS'promote'
p3648
I1
sS'jaw'
p3649
I2
sS'madman'
p3650
I1
sS'should'
p3651
I7
sS'Manic'
p3652
I1
sS'York'
p3653
I3
sS'fuel'
p3654
I2
sS'he'
p3655
I53
sS'local'
p3656
I5
sS'Legend'
p3657
I4
sS'hope'
p3658
I2
sS'photographs'
p3659
I1
sS'abused'
p3660
I3
sS'bonds'
p3661
I1
sS'familiar'
p3662
I2
sS'likable'
p3663
I3
sS'bear'
p3664
I1
sS'Keep'
p3665
I1
sS"donn't"
p3666
I1
sS'Coal'
p3667
I1
sS'124'
p3668
I1
sS'words'
p3669
I1
sS'Cowin'
p3670
I1
sS'Amiibo'
p3671
I3
sS'Beata'
p3672
I1
sS'evolution'
p3673
I1
sS'Because'
p3674
I3
sS'evident'
p3675
I1
sS'Fighttees'
p3676
I1
sS'course'
p3677
I3
sS'finds'
p3678
I1
sS'married'
p3679
I1
sS'calling'
p3680
I3
sS'crippled'
p3681
I2
sS'extremists'
p3682
I5
sS'stuff'
p3683
I1
sS'Camden'
p3684
I2
sS'she'
p3685
I7
sS'allegation'
p3686
I1
sS'Austen'
p3687
I1
sS'taxed'
p3688
I1
sS'view'
p3689
I2
sS'spotted'
p3690
I1
sS'Afghanistan'
p3691
I2
sS'temporarily'
p3692
I1
sS'King'
p3693
I3
sS'national'
p3694
I5
sS'humans'
p3695
I2
sS'C'
I3
sS'freeze'
p3696
I5
sS'one-frame'
p3697
I1
sS'edition'
p3698
I1
sS'officials'
p3699
I11
sS'faces'
p3700
I1
sS'Pe'
p3701
I1
sS'Be'
p3702
I1
sS'chomped'
p3703
I1
sS'sort-of'
p3704
I1
sS'closer'
p3705
I2
sS'wire'
p3706
I1
sS'Wisconsin'
p3707
I1
sS'attempting'
p3708
I1
sS'nuclear'
p3709
I7
sS'Blackburn'
p3710
I1
sS'genius'
p3711
I1
sS'state'
p3712
I7
sS'Nme'
p3713
I1
sS'closed'
p3714
I3
sS'limit'
p3715
I1
sS'neither'
p3716
I1
sS'Republican'
p3717
I7
sS'9ire'
p3718
I1
sS'Richie'
p3719
I1
sS'PM'
p3720
I1
sS'Body'
p3721
I1
sS'ends'
p3722
I1
sS'explosive'
p3723
I1
sS'opening'
p3724
I2
sS'Sri'
p3725
I1
sS'Rodartenvident'
p3726
I1
sS'agencies'
p3727
I1
sS'indiscriminate'
p3728
I1
sS'Facing'
p3729
I1
sS"Mosul's"
p3730
I1
sS'S'
I38
sS'60m'
p3731
I1
sS'NASCAR'
p3732
I1
sS'key'
p3733
I4
sS'group'
p3734
I5
sS'w'
I1
sS'swift'
p3735
I1
sS'Porte'
p3736
I1
sS'piece'
p3737
I1
sS'Lindsey'
p3738
I1
sS'career'
p3739
I4
sS'taking'
p3740
I4
sS'\xff\xff\xff\xff\xff\xffltage'
p3741
I1
sS'drug'
p3742
I2
sS'creeping'
p3743
I1
sS'Indies'
p3744
I3
sS'Woods'
p3745
I1
sS'Lawyer'
p3746
I1
sS'caliphate'
p3747
I1
sS'fielder'
p3748
I1
sS'passing'
p3749
I1
sS'superteams'
p3750
I1
sS'jersey'
p3751
I1
sS'withdraws'
p3752
I1
sS'diplomats'
p3753
I1
sS'anti-capitalist'
p3754
I1
sS'migrant'
p3755
I1
sS'Los'
p3756
I8
sS'businessman'
p3757
I1
sS'Music'
p3758
I1
sS'EPA'
p3759
I1
sS'rightly'
p3760
I1
sS'Laviai'
p3761
I1
sS"Nation'"
p3762
I1
sS'withdrawn'
p3763
I1
sS'appeared'
p3764
I2
sS'quit'
p3765
I2
sS'debt'
p3766
I1
sS'Get'
p3767
I1
sS'addition'
p3768
I1
sS"it's"
p3769
I2
sS'holidays'
p3770
I1
sS'cent'
p3771
I2
sS'hardline'
p3772
I1
sS'genetic'
p3773
I2
sS'thieves'
p3774
I1
sS'seasoned'
p3775
I3
sS'treat'
p3776
I1
sS'Active'
p3777
I1
sS'curtain'
p3778
I1
sS'proposal'
p3779
I1
sS'kitchen'
p3780
I1
sS'choose'
p3781
I1
sS'Bethani'
p3782
I1
sS'Exxon'
p3783
I4
sS'diversity'
p3784
I1
sS'received'
p3785
I1
sS'Puzder'
p3786
I1
sS'kickers'
p3787
I1
sS'Nations'
p3788
I2
sS'Credit'
p3789
I2
sS'finished'
p3790
I1
sS'tense'
p3791
I1
sS'deep'
p3792
I3
sS'World'
p3793
I4
sS'Knights'
p3794
I1
sS'Jamal'
p3795
I1
sS'general'
p3796
I3
sS'present'
p3797
I3
sS'volunteer'
p3798
I1
sS'And'
p3799
I3
sS'homes'
p3800
I1
sS'2016'
p3801
I10
sS'Force'
p3802
I1
sS'Wholesale'
p3803
I1
sS'Warns'
p3804
I1
sS'nd'
p3805
I3
sS'value'
p3806
I2
sS'General'
p3807
I5
sS'will'
p3808
I32
sS'stunning'
p3809
I1
sS'fault'
p3810
I1
sS'Battle'
p3811
I1
sS'Sessionsat'
p3812
I1
sS"America's"
p3813
I2
sS'ripe'
p3814
I1
sS'almost'
p3815
I1
sS'Searing'
p3816
I1
sS'site'
p3817
I2
sS'surface'
p3818
I1
sS'adventures'
p3819
I1
sS'hardware'
p3820
I1
sS'vs'
p3821
I1
sS'swinging'
p3822
I1
sS'aggressiveness'
p3823
I1
sS'claimed'
p3824
I3
sS"Russia's"
p3825
I6
sS'You'
p3826
I3
sS'Beach'
p3827
I1
sS'contention'
p3828
I1
sS'capture'
p3829
I2
sS'Briton'
p3830
I1
sS'shooting'
p3831
I5
sS'On-Demand'
p3832
I1
sS'generic'
p3833
I1
sS'self-declared'
p3834
I1
sS'began'
p3835
I1
sS'Kongs'
p3836
I1
sS'administration'
p3837
I5
sS'Colombian'
p3838
I1
sS'member'
p3839
I1
sS'Pouille'
p3840
I1
sS'parts'
p3841
I3
sS'largest'
p3842
I3
sS'Hearthstone'
p3843
I1
sS'party'
p3844
I6
sS'gets'
p3845
I2
sS'Panel'
p3846
I1
sS'injured'
p3847
I1
sS'Fognini'
p3848
I1
sS'Third'
p3849
I1
sS'Compelling'
p3850
I1
sS'bald'
p3851
I2
sS'MTV'
p3852
I6
sS'effect'
p3853
I1
sS'Nether'
p3854
I1
sS'senior-most'
p3855
I1
sS'student'
p3856
I1
sS'fierce'
p3857
I2
sS'build'
p3858
I1
sS'Choices'
p3859
I1
sS'3pendingas'
p3860
I1
sS'steals'
p3861
I1
sS'off'
p3862
I6
sS'Cashvered'
p3863
I1
sS'i'
I3
sS'Syrian'
p3864
I2
sS'weapon'
p3865
I1
sS'Kushner'
p3866
I1
sS'well'
p3867
I5
sS'fighting'
p3868
I2
sS'Lonzo'
p3869
I4
sS'thought'
p3870
I3
sS'showpiece'
p3871
I1
sS'Rylance'
p3872
I1
sS'experimental'
p3873
I1
sS'Have'
p3874
I2
sS'sets'
p3875
I5
sS'undertaken'
p3876
I1
sS'drawing'
p3877
I2
sS'latest'
p3878
I4
sS'weekendrtality'
p3879
I1
sS'restore'
p3880
I1
sS'newest'
p3881
I2
sS'BB'
p3882
I1
sS'less'
p3883
I4
sS'increasingly'
p3884
I1
sS'percent'
p3885
I1
sS'glut'
p3886
I2
sS'executive'
p3887
I1
sS'detail'
p3888
I1
sS'onds'
p3889
I1
sS'nicknamed'
p3890
I1
sS'Sunday'
p3891
I19
sS'Fourth'
p3892
I1
sS'biologist'
p3893
I1
sS'Alibaba'
p3894
I1
sS'Brigade'
p3895
I1
sS'Gill'
p3896
I1
sS'hazing'
p3897
I1
sS'console'
p3898
I1
sS'field'
p3899
I1
sS'flee'
p3900
I1
sS'Friday'
p3901
I12
sS'sky'
p3902
I1
sS'killed'
p3903
I2
sS'arrest'
p3904
I3
sS'add'
p3905
I2
sS"Buffett's"
p3906
I1
sS'Diablo'
p3907
I1
sS'citizen'
p3908
I1
sS'billionths'
p3909
I1
sS'Five'
p3910
I1
sS'loan'
p3911
I1
sS'match'
p3912
I3
sS'tests'
p3913
I1
sS'IHRC'
p3914
I1
sS'government'
p3915
I18
sS'gulped'
p3916
I1
sS'famously'
p3917
I1
sS'protesters'
p3918
I3
sS'prese'
p3919
I1
sS'haul'
p3920
I1
sS"'Something"
p3921
I1
sS'five'
p3922
I2
sS'T'
I3
sS'press'
p3923
I2
sS'loss'
p3924
I1
sS'England'
p3925
I7
sS'like'
p3926
I15
sS'lost'
p3927
I4
sS'vibrant'
p3928
I1
sS'journalism'
p3929
I1
sS'riddle'
p3930
I2
sS'filmed'
p3931
I1
sS'roundly'
p3932
I1
sS'hosts'
p3933
I1
sS'journalist'
p3934
I1
sS'lose'
p3935
I2
sS'become'
p3936
I5
sS'works'
p3937
I3
sS'page'
p3938
I2
sS'Oceanic'
p3939
I1
sS'because'
p3940
I6
sS'hot-dog'
p3941
I1
sS'towels'
p3942
I3
sS'habitat'
p3943
I1
sS'footage'
p3944
I1
sS'Six'
p3945
I2
sS'DWP'
p3946
I1
sS'Actor'
p3947
I4
sS"There's"
p3948
I1
sS'openness'
p3949
I1
sS'home'
p3950
I5
sS'employment'
p3951
I1
sS'graphical'
p3952
I1
sS'contested'
p3953
I1
sS'markets'
p3954
I1
sS'ess'
p3955
I1
sS'Singapore'
p3956
I1
sS'literally'
p3957
I2
sS'avoid'
p3958
I1
sS'People'
p3959
I1
sS'demonstrators'
p3960
I1
sS'shelter'
p3961
I1
sS'rewarding'
p3962
I1
sS'does'
p3963
I3
sS'Connie'
p3964
I1
sS'Those'
p3965
I2
sS'leader'
p3966
I2
sS'Bryant'
p3967
I1
sS'regain'
p3968
I3
sS'Eden'
p3969
I1
sS'evacuation'
p3970
I1
sS'Fernando'
p3971
I1
sS'Mannarino'
p3972
I1
sS'pressure'
p3973
I3
sS'doctors'
p3974
I1
sS'Planned'
p3975
I2
sS'Kindle'
p3976
I1
sS'r'
I2
sS'Maul'
p3977
I1
sS'after'
p3978
I48
sS'panel'
p3979
I2
sS'gained'
p3980
I2
sS'about'
p3981
I33
sS'rare'
p3982
I2
sS'engines'
p3983
I3
sS'litigating'
p3984
I1
sS'Sitting'
p3985
I1
sS'US'
p3986
I14
sS'compatible'
p3987
I1
sS'Zero'
p3988
I3
sS'UN'
p3989
I2
sS'Americans'
p3990
I2
sS'ten'
p3991
I1
sS'UK'
p3992
I1
sS'Japan'
p3993
I1
sS'nds'
p3994
I1
sS'documentary'
p3995
I1
sS'software'
p3996
I3
sS'centrist'
p3997
I1
sS'own'
p3998
I4
sS'Rizzo'
p3999
I1
sS'previously'
p4000
I1
sS'Southern'
p4001
I2
sS'Act'
p4002
I1
sS'Two'
p4003
I3
sS'referendum'
p4004
I1
sS'Iraqi'
p4005
I9
sS'guard'
p4006
I2
sS'tiny'
p4007
I2
sS'suitors'
p4008
I1
sS'Craig'
p4009
I1
sS'utility'
p4010
I1
sS'hitting'
p4011
I1
sS'Ball'
p4012
I3
sS'accused'
p4013
I5
sS'Recruits'
p4014
I1
sS'suburbs'
p4015
I1
sS'prospects'
p4016
I1
sS'housing'
p4017
I1
sS'apps'
p4018
I1
sS'spiral'
p4019
I1
sS'Rosensteinst'
p4020
I1
sS'Vegas'
p4021
I1
sS'six-year-old'
p4022
I1
sS'Chile'
p4023
I1
sS'biggest'
p4024
I6
sS'E-reader'
p4025
I1
sS'double-down'
p4026
I1
sS'function'
p4027
I1
sS'dispensaries'
p4028
I1
sS'ef'
p4029
I1
sS'jury'
p4030
I1
sS'Dep'
p4031
I1
sS'sequel'
p4032
I1
sS'but'
p4033
I33
sS"party's"
p4034
I1
sS'hi'
p4035
I1
sS'brashness'
p4036
I3
sS'Posted'
p4037
I1
sS'courts'
p4038
I1
sS'Dea'
p4039
I1
sS'villains'
p4040
I1
sS'highest'
p4041
I1
sS'Chelsea'
p4042
I1
sS'eat'
p4043
I1
sS'partially'
p4044
I1
sS'count'
p4045
I2
sS'made'
p4046
I6
sS'places'
p4047
I2
sS'Wall'
p4048
I1
sS'official'
p4049
I4
sS'annoying'
p4050
I1
sS'record'
p4051
I1
sS'below'
p4052
I2
sS'stories'
p4053
I5
sS'ruling'
p4054
I1
sS'problem'
p4055
I3
sS'Care'
p4056
I1
sS'minutes'
p4057
I2
sS'display'
p4058
I2
sS'slew'
p4059
I1
sS'unfolding'
p4060
I1
sS'Realm'
p4061
I1
sS'Berkshire'
p4062
I1
sS'Obama-era'
p4063
I1
sS'sexually'
p4064
I1
sS'pie'
p4065
I1
sS'gnawing'
p4066
I1
sS'beats'
p4067
I1
sS'ino'
p4068
I1
sS'Leopoldo'
p4069
I1
sS'Electronics'
p4070
I1
sS'Darwin'
p4071
I1
sS'80'
p4072
I2
sS'Wimbledon'
p4073
I5
sS'diplomat'
p4074
I1
sS'performed'
p4075
I1
sS'rumors'
p4076
I1
sS'Sessions'
p4077
I9
sS'fascinating'
p4078
I1
sS'deadly'
p4079
I1
sS'44'
p4080
I3
sS'eastern'
p4081
I1
sS'boot'
p4082
I1
sS'43'
p4083
I1
sS'willing'
p4084
I1
sS'Delivery'
p4085
I1
sS'Islamic'
p4086
I12
sS'other'
p4087
I15
sS'billionaires'
p4088
I1
sS'details'
p4089
I3
sS'mass'
p4090
I2
sS'Pietersen'
p4091
I2
sS'Carolina'
p4092
I2
sS'wallcrawler'
p4093
I1
sS'album'
p4094
I1
sS'February'
p4095
I1
sS'star'
p4096
I2
sS'Secrets'
p4097
I2
sS'class'
p4098
I1
sS'behavioral'
p4099
I1
sS'In-depth'
p4100
I1
sS'baffling'
p4101
I1
sS'U'
I38
sS'Morgan'
p4102
I1
sS'Every'
p4103
I2
sS"News'"
p4104
I1
sS'filmmaker'
p4105
I1
sS'South'
p4106
I9
sS'breaks'
p4107
I3
sS'sentiment'
p4108
I1
sS'using'
p4109
I1
sS'ranks'
p4110
I1
sS'space'
p4111
I1
sS'lasted'
p4112
I3
sS'rule'
p4113
I1
sS'Lusk'
p4114
I1
sS'portion'
p4115
I1
sS'races'
p4116
I2
sS'al-Assad'
p4117
I1
sS'diagnosis'
p4118
I1
sS'Season'
p4119
I1
sS'rural'
p4120
I1
sS'sakalavae'
p4121
I1
sS'Pitbull'
p4122
I1
ssS'_mapping'
p4123
(dp4124
g18
I305
sg19
I382
sg20
I3582
sg21
I3905
sg22
I1355
sg23
I3522
sg24
I878
sg25
I2895
sg26
I3790
sg27
I2330
sg28
I430
sg29
I3087
sg30
I1832
sg31
I2558
sg32
I2564
sg33
I1244
sg34
I445
sg35
I1215
sg36
I3637
sg37
I3869
sg38
I404
sg39
I184
sg40
I548
sg41
I1291
sg42
I1935
sg43
I376
sg44
I2253
sg45
I3934
sg46
I1843
sg47
I1904
sg48
I786
sg49
I1068
sg50
I2952
sg51
I2060
sg52
I1382
sg53
I1432
sg54
I3679
sg55
I3601
sg56
I2625
sg57
I926
sg58
I3502
sg59
I1968
sg60
I1141
sg61
I3959
sg62
I1414
sg63
I1544
sg64
I2354
sg65
I478
sg66
I2606
sg67
I298
sg68
I789
sg69
I1678
sg70
I2428
sg71
I794
sg72
I2101
sg73
I2995
sg74
I2705
sg75
I1203
sg76
I174
sg77
I1245
sg78
I3736
sg79
I3376
sg80
I1328
sg81
I3471
sg82
I1059
sg83
I452
sg84
I3052
sg85
I1685
sg86
I2886
sg87
I1365
sg88
I787
sg89
I3481
sg90
I1740
sg91
I3053
sg92
I3002
sg93
I2845
sg94
I3460
sg95
I565
sg96
I63
sg97
I3646
sg98
I3396
sg99
I1250
sg100
I489
sg101
I525
sg102
I2034
sg103
I3501
sg104
I3417
sg105
I3781
sg106
I3543
sg107
I2228
sg108
I2045
sg109
I4132
sg110
I699
sg111
I3249
sg112
I1310
sg113
I2958
sg114
I3146
sg115
I2257
sg116
I201
sg117
I3678
sg118
I2974
sg119
I81
sg120
I1500
sg121
I214
sg122
I3192
sg123
I2927
sg124
I833
sg125
I189
sg126
I3179
sg127
I681
sg128
I3020
sg129
I454
sg130
I3023
sg131
I1631
sg132
I230
sg133
I1083
sg134
I2195
sg135
I1032
sg136
I3540
sg137
I2310
sg138
I1670
sg139
I3128
sg140
I3520
sg141
I1919
sg142
I1191
sg143
I3692
sg144
I3799
sg145
I591
sg146
I134
sg147
I1865
sg148
I2998
sg149
I3519
sg150
I39
sg151
I4135
sg152
I4105
sg153
I19
sg154
I2365
sg155
I3785
sg156
I3794
sg157
I3726
sg158
I2165
sg159
I2124
sg160
I3393
sg161
I369
sg162
I2434
sg163
I836
sg164
I2633
sg165
I3251
sg166
I2285
sg167
I2687
sg168
I3177
sg169
I3677
sg170
I557
sg171
I3165
sg172
I2207
sg173
I758
sg174
I223
sg175
I1854
sg176
I4005
sg177
I350
sg178
I2094
sg179
I505
sg180
I2201
sg181
I3508
sg182
I2954
sg183
I1747
sg184
I3953
sg185
I2527
sg186
I1465
sg187
I1607
sg188
I705
sg189
I2184
sg190
I3464
sg191
I2697
sg192
I2762
sg193
I2465
sg194
I2671
sg195
I2980
sg196
I3929
sg197
I2723
sg198
I388
sg199
I2766
sg200
I1448
sg201
I3548
sg202
I1907
sg203
I732
sg204
I3845
sg205
I1474
sg206
I1983
sg207
I474
sg208
I1948
sg209
I3320
sg210
I4122
sg211
I840
sg212
I2315
sg213
I3943
sg214
I2887
sg215
I2726
sg216
I2778
sg217
I2872
sg218
I78
sg219
I1023
sg220
I66
sg221
I3150
sg222
I3155
sg223
I1728
sg224
I3116
sg225
I1080
sg226
I3173
sg227
I3156
sg228
I1117
sg229
I3510
sg230
I2335
sg231
I440
sg232
I3034
sg233
I2869
sg234
I299
sg235
I3028
sg236
I3097
sg237
I485
sg238
I3355
sg239
I2128
sg240
I1124
sg241
I3353
sg242
I1402
sg243
I3603
sg244
I1517
sg245
I1371
sg246
I3296
sg247
I2082
sg248
I1435
sg249
I529
sg250
I2605
sg251
I1791
sg252
I3305
sg253
I1314
sg254
I3208
sg255
I1302
sg256
I1188
sg257
I2813
sg258
I327
sg259
I3057
sg260
I943
sg261
I3201
sg262
I164
sg263
I1556
sg264
I3410
sg265
I3681
sg266
I133
sg267
I711
sg268
I1053
sg269
I972
sg270
I2947
sg271
I518
sg272
I2300
sg273
I1341
sg274
I3849
sg275
I1565
sg276
I1177
sg277
I2643
sg278
I1553
sg279
I1620
sg280
I36
sg281
I3688
sg282
I1383
sg283
I3972
sg284
I1034
sg285
I1006
sg286
I458
sg287
I1561
sg288
I1796
sg289
I3834
sg290
I3892
sg291
I1327
sg292
I2368
sg293
I2104
sg294
I289
sg295
I955
sg296
I3046
sg297
I1603
sg298
I2649
sg299
I3938
sg300
I3036
sg301
I2188
sg302
I2158
sg303
I366
sg304
I2843
sg305
I864
sg306
I932
sg307
I2172
sg308
I3874
sg309
I1207
sg310
I1781
sg311
I1737
sg312
I3448
sg313
I3295
sg314
I1217
sg315
I2296
sg316
I3558
sg317
I315
sg318
I1316
sg319
I2284
sg320
I3077
sg321
I866
sg322
I939
sg323
I3847
sg324
I1232
sg325
I3760
sg326
I775
sg327
I3670
sg328
I2905
sg329
I1632
sg330
I3930
sg331
I3789
sg332
I2827
sg333
I74
sg334
I1252
sg335
I2025
sg336
I1103
sg337
I1350
sg338
I460
sg339
I2824
sg340
I696
sg341
I348
sg342
I511
sg343
I1135
sg344
I4061
sg345
I4052
sg346
I288
sg347
I1127
sg348
I946
sg349
I3571
sg350
I1908
sg351
I1636
sg352
I2205
sg353
I2983
sg354
I1770
sg355
I920
sg356
I2341
sg357
I2030
sg358
I589
sg359
I604
sg360
I1687
sg361
I790
sg362
I3339
sg363
I2867
sg364
I3814
sg365
I3419
sg366
I1855
sg367
I1701
sg368
I2572
sg369
I1982
sg370
I4080
sg371
I652
sg372
I4116
sg373
I221
sg374
I3223
sg375
I2146
sg376
I271
sg377
I2452
sg378
I2232
sg379
I1370
sg380
I3074
sg381
I432
sg382
I877
sg383
I4058
sg384
I1000
sg385
I730
sg386
I2448
sg387
I2259
sg388
I2518
sg389
I750
sg390
I2662
sg391
I182
sg392
I3638
sg393
I1294
sg394
I1491
sg395
I338
sg396
I3266
sg397
I1883
sS'W'
I1823
sg398
I514
sg399
I673
sg400
I2844
sg401
I2168
sg402
I375
sg403
I1911
sg404
I1354
sg405
I3142
sg406
I2665
sg407
I2912
sg408
I211
sg409
I677
sg410
I53
sg411
I2482
sg412
I1180
sg413
I2357
sg414
I282
sg415
I3440
sg416
I987
sg417
I2810
sg418
I3407
sg419
I2881
sg420
I2109
sg421
I2749
sg422
I1759
sg423
I2653
sg424
I3875
sg425
I2326
sg426
I1036
sg427
I2436
sg428
I803
sg12
I0
sg429
I2826
sg430
I2942
sg431
I3215
sg432
I626
sg433
I527
sg434
I2425
sg435
I521
sg436
I257
sg437
I3451
sg438
I3872
sg439
I1724
sg440
I210
sg441
I2070
sg442
I2681
sg443
I2555
sg444
I1255
sg445
I3447
sg446
I3890
sg447
I339
sg448
I2499
sg449
I2711
sg450
I2301
sg451
I296
sg452
I3995
sg453
I3759
sg454
I3667
sg455
I2196
sg456
I1221
sg457
I1532
sg458
I3817
sg459
I2968
sg460
I4133
sg461
I3731
sg462
I3750
sg463
I956
sg464
I1296
sg465
I1634
sg466
I2966
sg467
I1735
sg468
I612
sg469
I1739
sg470
I266
sg471
I3902
sg472
I1379
sg473
I3997
sg474
I2498
sg475
I399
sg476
I1449
sg477
I2388
sg478
I2048
sg479
I3559
sg480
I204
sg481
I2901
sg482
I2216
sg483
I1366
sg484
I2789
sg485
I1248
sg486
I3538
sg487
I2781
sg488
I2227
sg489
I875
sg490
I2570
sg491
I4047
sg492
I1736
sg493
I2177
sg494
I960
sg495
I2563
sg496
I3531
sg497
I3386
sg498
I1973
sS'-'
I642
sg499
I1516
sg500
I2198
sg501
I1795
sg502
I2270
sg503
I279
sg504
I286
sg505
I2804
sg506
I3366
sg507
I1622
sg508
I1611
sg509
I3854
sg510
I2143
sg511
I1462
sg512
I1014
sg513
I3642
sg514
I3741
sg515
I2318
sg516
I2792
sg517
I2819
sg518
I964
sg519
I602
sg520
I1766
sg521
I3955
sg522
I1902
sg523
I3066
sg524
I1599
sg525
I2659
sg526
I3913
sg527
I1071
sg528
I2130
sg529
I3500
sg530
I492
sg531
I934
sg532
I2340
sg533
I4026
sg534
I2160
sg535
I2588
sg536
I392
sg537
I2176
sg538
I672
sg539
I3219
sg540
I1530
sg541
I2278
sg542
I1819
sg543
I3145
sg544
I2550
sg545
I3862
sg546
I1110
sg547
I2677
sg548
I2242
sg549
I2444
sg550
I1046
sg551
I3690
sg552
I410
sg553
I3027
sg554
I2911
sg555
I629
sg556
I3724
sg557
I1278
sg558
I94
sg559
I3084
sg560
I3467
sg561
I3211
sg562
I1585
sg563
I1837
sg564
I3300
sg565
I981
sg566
I4057
sg567
I2821
sg568
I929
sg569
I951
sg570
I1711
sg571
I3496
sg572
I2320
sg573
I3242
sg574
I976
sg575
I1443
sg576
I1162
sg577
I1388
sg578
I429
sg579
I1499
sg580
I2957
sg581
I3210
sg582
I2994
sg583
I3113
sg584
I4068
sg585
I2369
sS'h'
I4039
sg586
I1916
sg587
I3270
sg588
I4130
sg589
I1673
sg590
I1153
sg591
I491
sg592
I3999
sg593
I2267
sg594
I4104
sg595
I1809
sg596
I2497
sg597
I2940
sg598
I1266
sg599
I689
sg600
I103
sg601
I2511
sg602
I3425
sg603
I1699
sg604
I1713
sg605
I3567
sg606
I3798
sg607
I2754
sg608
I3973
sg609
I1591
sg610
I3493
sg611
I3294
sg612
I3342
sg613
I2349
sg614
I2379
sg615
I183
sg616
I2670
sg617
I1056
sg618
I1140
sg619
I2125
sg620
I1163
sg621
I2470
sg622
I3015
sg623
I3101
sg624
I1478
sg625
I1256
sg626
I222
sg627
I3449
sg628
I3562
sg629
I2794
sg630
I2780
sg631
I140
sg632
I3560
sg633
I4140
sg634
I1226
sg635
I1168
sg636
I3592
sg637
I2370
sg638
I3110
sg639
I2122
sg640
I1831
sg641
I30
sg642
I767
sg643
I1082
sg644
I2782
sg645
I3623
sg646
I1582
sg647
I443
sg648
I2486
sg649
I2961
sg650
I2496
sg651
I1578
sg652
I1605
sg653
I679
sg654
I3556
sg655
I1922
sg656
I3450
sg657
I738
sg658
I986
sg659
I963
sg660
I58
sg661
I1130
sg662
I3620
sg663
I378
sg664
I2209
sg665
I1836
sg666
I207
sg667
I484
sg668
I927
sg669
I1820
sg670
I1249
sg671
I2894
sg672
I1456
sg673
I193
sg674
I231
sg675
I3544
sg676
I2226
sg677
I390
sg678
I2888
sg679
I735
sg680
I46
sg681
I1020
sg682
I2362
sg683
I3446
sg684
I1247
sg685
I3352
sg686
I2707
sg687
I1665
sg688
I3103
sg689
I778
sg690
I3494
sg691
I332
sg692
I2059
sg693
I2150
sg694
I3647
sg695
I674
sg696
I760
sg697
I2244
sg698
I1667
sg699
I1238
sg700
I1497
sg701
I1579
sg702
I395
sg703
I3218
sg704
I349
sg705
I6
sg706
I1623
sg707
I374
sg708
I325
sg709
I3081
sg710
I1259
sg711
I3049
sg712
I1640
sg713
I1228
sg714
I2139
sg715
I621
sg716
I2856
sg717
I2859
sg718
I860
sg719
I1508
sg720
I1741
sg721
I820
sg722
I2173
sg723
I3263
sg724
I881
sg725
I262
sg726
I603
sg727
I2997
sg728
I1716
sg729
I3512
sg730
I147
sg731
I247
sg732
I4070
sg733
I3717
sg734
I2068
sg735
I4092
sg736
I3082
sg737
I880
sg738
I3428
sg739
I114
sg740
I1129
sg741
I3627
sg742
I3739
sg743
I1275
sg744
I34
sg745
I1574
sg746
I2426
sg747
I771
sg748
I135
sg749
I2074
sg750
I41
sg751
I1329
sg752
I3855
sg753
I3234
sg754
I4004
sg755
I1179
sg756
I2916
sg757
I3005
sg758
I15
sg759
I1546
sg760
I3980
sg761
I2939
sg762
I77
sg763
I3125
sg764
I1589
sg765
I40
sg766
I938
sg767
I1149
sg768
I3385
sg769
I2560
sg770
I2399
sg771
I43
sg772
I2703
sg773
I1641
sg774
I1073
sg775
I2551
sg776
I146
sg777
I1225
sg778
I251
sg779
I2925
sg780
I1764
sg781
I3261
sg782
I3644
sg783
I4008
sg784
I3434
sg785
I3043
sg786
I844
sg787
I1282
sg788
I4102
sg789
I649
sg790
I701
sg791
I504
sg792
I1434
sg793
I3733
sg794
I3708
sg795
I118
sg796
I4139
sg797
I3734
sg798
I1725
sg799
I2043
sg800
I1707
sg801
I970
sg802
I1712
sg803
I1486
sg804
I2928
sg805
I2364
sg806
I2785
sg807
I25
sg808
I21
sg809
I1864
sg810
I166
sg811
I3707
sg812
I1657
sg813
I923
sg814
I1847
sg815
I3534
sg816
I2913
sg817
I1378
sg818
I2688
sg819
I849
sg820
I3439
sg821
I4027
sg822
I1638
sg823
I4006
sg824
I3550
sg825
I1064
sg826
I801
sg827
I2663
sg828
I2617
sg829
I1415
sg830
I354
sg831
I3022
sg832
I761
sg833
I609
sg834
I194
sg835
I743
sg836
I88
sg837
I4014
sg838
I1859
sg839
I2657
sg840
I2884
sg841
I4050
sg842
I1587
sg843
I4035
sg844
I80
sg845
I949
sg846
I1289
sg847
I1625
sg848
I2166
sg849
I2303
sg850
I1802
sg851
I3928
sg852
I1150
sg853
I1483
sg854
I3490
sg855
I1139
sg856
I707
sg857
I717
sg858
I344
sg859
I269
sg860
I2314
sg861
I233
sg862
I3216
sg863
I1606
sg864
I2970
sg865
I1284
sg866
I977
sg867
I3240
sg868
I3518
sg869
I4110
sg870
I556
sg871
I2106
sg872
I3746
sg873
I258
sg874
I1214
sg875
I3492
sg876
I167
sg877
I1270
sg878
I675
sg879
I264
sg880
I1583
sg881
I1146
sg882
I3331
sg883
I1332
sg884
I3751
sg885
I1182
sg886
I896
sg887
I2538
sg888
I605
sg889
I1389
sg890
I585
sg891
I4015
sg892
I2224
sg893
I2656
sg894
I252
sg895
I1609
sg896
I3426
sg897
I1849
sg898
I2773
sg899
I3805
sg900
I816
sg901
I1409
sg902
I1360
sg903
I1662
sg904
I3787
sg905
I1254
sg906
I2398
sg907
I3388
sg908
I2669
sg909
I415
sg910
I1765
sg911
I3966
sg912
I2741
sg913
I3085
sg914
I3257
sg915
I3825
sg916
I1772
sg917
I3264
sg918
I224
sg919
I347
sg920
I4045
sg921
I2858
sg922
I3280
sg923
I295
sg924
I3427
sg925
I3370
sS'o'
I2154
sg926
I2333
sg927
I226
sg928
I3706
sg929
I3244
sg930
I2485
sg931
I3037
sg932
I1800
sg933
I1954
sg934
I3338
sg935
I1454
sg936
I1566
sg937
I982
sg938
I1763
sg939
I2147
sg940
I2252
sg941
I84
sg942
I419
sg943
I965
sg944
I3557
sg945
I3917
sg946
I1439
sg947
I3757
sg948
I3315
sg949
I662
sg950
I263
sg951
I2683
sg952
I957
sg953
I1165
sg954
I3056
sg955
I2753
sg956
I27
sg957
I2321
sg958
I89
sg959
I4129
sg960
I33
sg961
I1100
sg962
I3214
sg963
I3169
sg964
I4001
sg965
I500
sg966
I4096
sg967
I1633
sg968
I592
sg969
I2822
sg970
I2937
sg971
I1012
sg972
I3304
sg973
I3018
sg974
I2035
sg975
I2311
sg976
I1322
sg977
I936
sg978
I3
sg979
I1241
sg980
I3626
sg981
I3915
sg982
I1797
sg983
I129
sg984
I1381
sg985
I1273
sg986
I3401
sg987
I2016
sg988
I799
sg989
I3377
sg990
I2190
sg991
I937
sg992
I1220
sg993
I2809
sg994
I2412
sg995
I508
sg996
I2243
sg997
I232
sg998
I1751
sg999
I904
sg1000
I2680
sg1001
I2561
sg1002
I3922
sg1003
I1194
sg1004
I769
sg1005
I2208
sg1006
I3319
sg1007
I1463
sg1008
I2924
sg1009
I1364
sg1010
I1826
sg1011
I322
sg1012
I173
sg1013
I615
sg1014
I1862
sg1015
I3226
sg1016
I3473
sg1017
I1977
sg1018
I3885
sg1019
I2261
sg1020
I202
sg1021
I2724
sg1022
I1730
sg1023
I256
sg1024
I594
sg1025
I1309
sg1026
I2471
sg1027
I2512
sg1028
I865
sg1029
I2356
sg1030
I667
sg1031
I2811
sg1032
I1762
sg1033
I3821
sg1034
I2510
sg1035
I902
sg1036
I1822
sg1037
I2063
sg1038
I275
sg1039
I261
sg1040
I1258
sg1041
I3454
sg1042
I3762
sg1043
I798
sg1044
I1079
sg1045
I250
sg1046
I2926
sg1047
I3132
sg1048
I713
sg1049
I554
sg1050
I3166
sg1051
I3933
sg1052
I749
sg1053
I1779
sg1054
I3453
sg1055
I1313
sg1056
I792
sg1057
I3796
sg1058
I3006
sg1059
I597
sg1060
I2090
sg1061
I740
sg1062
I2820
sg1063
I3067
sg1064
I3792
sg1065
I3358
sg1066
I341
sg1067
I729
sg1068
I1573
sg1069
I3702
sg1070
I3174
sg1071
I598
sg1072
I3413
sg1073
I780
sg1074
I1597
sg1075
I2709
sg1076
I1394
sg1077
I762
sg1078
I898
sg1079
I3766
sg1080
I3753
sg1081
I2200
sg1082
I703
sg1083
I1237
sg1084
I563
sg1085
I4119
sg1086
I3716
sg1087
I3133
sg1088
I2740
sg1089
I2007
sg1090
I481
sg1091
I1094
sg1092
I2406
sg1093
I2050
sg1094
I2317
sg1095
I47
sg1096
I3054
sg1097
I2020
sg1098
I2039
sg1099
I631
sg1100
I149
sg1101
I2417
sg1102
I2743
sg1103
I3089
sg1104
I560
sg1105
I2033
sg1106
I1397
sg1107
I639
sg1108
I192
sg1109
I436
sS'p'
I1285
sg1110
I3532
sg1111
I463
sg1112
I868
sg1113
I874
sg1114
I473
sg1115
I1884
sg1116
I1717
sg1117
I3509
sg1118
I69
sg1119
I1134
sg1120
I281
sg1121
I2057
sg1122
I1650
sg1123
I2668
sg1124
I3421
sg1125
I555
sg1126
I3786
sg1127
I2044
sg1128
I4121
sg1129
I2963
sg1130
I2378
sg1131
I3420
sg1132
I2787
sg1133
I1431
sg1134
I4031
sg1135
I3563
sg1136
I3302
sg1137
I582
sg1138
I1660
sg1139
I4064
sg1140
I171
sg1141
I516
sg1142
I651
sg1143
I2865
sg1144
I1058
sg1145
I854
sg1146
I1427
sg1147
I1437
sg1148
I3441
sg1149
I1234
sg1150
I165
sg1151
I884
sg1152
I3802
sg1153
I3833
sg1154
I800
sg1155
I402
sg1156
I1962
sg1157
I3769
sg1158
I910
sg1159
I3774
sg1160
I2328
sg1161
I2799
sg1162
I3273
sg1163
I476
sg1164
I3416
sg1165
I119
sg1166
I2483
sg1167
I3170
sg1168
I1629
sg1169
I2087
sg1170
I702
sg1171
I1541
sg1172
I2404
sg1173
I2568
sg1174
I3436
sg1175
I3282
sg1176
I1231
sg1177
I1480
sg1178
I1932
sg1179
I1841
sg1180
I1420
sg1181
I3593
sg1182
I3422
sg1183
I1118
sg1184
I428
sg1185
I2415
sg1186
I988
sg1187
I488
sg1188
I3438
sg1189
I1460
sg1190
I3712
sg1191
I2381
sg1192
I678
sg1193
I513
sg1194
I3987
sg1195
I3964
sg1196
I921
sg1197
I2175
sg1198
I3856
sg1199
I2660
sg1200
I2771
sg1201
I1704
sg1202
I650
sg1203
I3262
sg1204
I595
sg1205
I2402
sg1206
I1877
sg1207
I680
sg1208
I137
sg1209
I383
sg1210
I2701
sg1211
I522
sg1212
I2861
sg1213
I408
sg1214
I3851
sg1215
I1682
sg1216
I2389
sg1217
I3238
sg1218
I3394
sg1219
I2047
sg1220
I3204
sg1221
I3596
sg1222
I3859
sg1223
I3072
sg1224
I888
sg1225
I2803
sg1226
I3921
sg1227
I4041
sg1228
I1881
sg1229
I1331
sg1230
I3203
sg1231
I622
sg1232
I1065
sg1233
I306
sg1234
I1487
sg1235
I3909
sg1236
I3745
sg1237
I2798
sg1238
I1834
sg1239
I3813
sg1240
I3656
sg1241
I87
sg1242
I859
sg1243
I3287
sg1244
I983
sg1245
I765
sg1246
I564
sg1247
I1484
sg1248
I2394
sg1249
I2231
sg1250
I311
sg1251
I818
sg1252
I3732
sg1253
I903
sg1254
I3617
sg1255
I2990
sg1256
I1131
sg1257
I2818
sg1258
I636
sg1259
I3491
sg1260
I2358
sg1261
I396
sg1262
I1866
sg1263
I2218
sg1264
I933
sg1265
I2583
sg1266
I1417
sg1267
I3947
sg1268
I3715
sg1269
I1272
sg1270
I242
sg1271
I1157
sg1272
I2097
sg1273
I4023
sS'1'
I2808
sg1274
I1339
sg1275
I3640
sg1276
I709
sg1277
I3705
sg1278
I1461
sg1279
I553
sg1280
I3552
sg1281
I1958
sg1282
I911
sg1283
I1758
sg1284
I1481
sg1285
I1510
sg1286
I3686
sg1287
I2414
sg1288
I2647
sg1289
I1018
sg1290
I3514
sg1291
I64
sg1292
I409
sg1293
I2422
sg1294
I75
sg1295
I57
sg1296
I4009
sg1297
I359
sg1298
I3351
sg1299
I3935
sg1300
I3314
sg1301
I3643
sg1302
I1581
sg1303
I3898
sg1304
I695
sg1305
I978
sg1306
I3873
sg1307
I3713
sg1308
I571
sg1309
I3653
sg1310
I3894
sg1311
I3986
sg1312
I739
sg1313
I1989
sg1314
I3989
sg1315
I157
sg1316
I523
sg1317
I2408
sg1318
I3639
sg1319
I54
sg1320
I1408
sg1321
I1334
sg1322
I1496
sg1323
I3063
sg1324
I856
sg1325
I4089
sg1326
I2054
sg1327
I614
sg1328
I3589
sg1329
I2136
sg1330
I2273
sg1331
I967
sg1332
I1097
sg1333
I894
sg1334
I3109
sg1335
I3883
sg1336
I1470
sg1337
I1088
sg1338
I2283
sg1339
I1469
sg1340
I3919
sg1341
I1347
sg1342
I1830
sg1343
I4094
sg1344
I1015
sg1345
I471
sg1346
I4002
sg1347
I2514
sg1348
I627
sg1349
I3978
sg1350
I387
sg1351
I549
sg1352
I1610
sg1353
I312
sg1354
I1774
sg1355
I1213
sg1356
I3837
sg1357
I234
sg1358
I225
sg1359
I2620
sg1360
I1734
sg1361
I999
sg1362
I930
sg1363
I3888
sg1364
I2199
sg1365
I1391
sg1366
I1069
sg1367
I3383
sg1368
I2334
sg1369
I108
sg1370
I4033
sg1371
I3680
sg1372
I2004
sg1373
I3835
sg1374
I2718
sg1375
I3810
sS'A'
I124
sg1376
I2344
sg1377
I2544
sg1378
I2959
sg1379
I1210
sg1380
I3576
sg1381
I2304
sg1382
I168
sg1383
I561
sg1384
I1406
sg1385
I1028
sg1386
I2067
sg1387
I1442
sg1388
I4142
sg1389
I776
sg1390
I2297
sg1391
I1269
sg1392
I3738
sg1393
I217
sg1394
I2265
sg1395
I1783
sg1396
I850
sg1397
I2967
sg1398
I755
sg1399
I1106
sg1400
I1714
sg1401
I1648
sg1402
I3286
sg1403
I887
sg1404
I1271
sg1405
I648
sg1406
I2534
sg1407
I853
sg1408
I1590
sg1409
I442
sg1410
I1181
sg1411
I3547
sg1412
I1033
sg1413
I3779
sg1414
I2716
sg1415
I1047
sg1416
I3908
sg1417
I3122
sg1418
I1212
sg1419
I2508
sg1420
I2525
sg1421
I3768
sg1422
I3374
sg1423
I330
sg1424
I2391
sg1425
I2839
sg1426
I2815
sg1427
I1845
sg1428
I2922
sg1429
I1769
sg1430
I1024
sg1431
I2814
sg1432
I2533
sg1433
I2848
sg1434
I3503
sg1435
I2515
sg1436
I2250
sg1437
I3360
sg1438
I2121
sg1439
I1991
sg1440
I61
sg1441
I1104
sg1442
I381
sg1443
I1374
sg1444
I2132
sg1445
I3299
sg1446
I2276
sg1447
I620
sg1448
I1458
sg1449
I1075
sg1450
I3992
sg1451
I917
sg1452
I2932
sg1453
I2816
sg1454
I90
sg1455
I199
sg1456
I1520
sg1457
I1324
sg1458
I772
sg1459
I1042
sg1460
I302
sg1461
I892
sg1462
I3012
sg1463
I2058
sg1464
I3137
sg1465
I3838
sg1466
I3151
sg1467
I1896
sS'2'
I2342
sg1468
I3372
sg1469
I1627
sg1470
I2064
sg1471
I3389
sg1472
I1398
sg1473
I1224
sg1474
I490
sg1475
I248
sg1476
I1121
sg1477
I244
sg1478
I13
sg1479
I2715
sg1480
I1754
sg1481
I802
sg1482
I1872
sg1483
I1495
sg1484
I1126
sg1485
I1693
sg1486
I3704
sg1487
I2462
sg1488
I2076
sg1489
I2866
sg1490
I51
sg1491
I3239
sg1492
I2675
sg1493
I97
sg1494
I872
sg1495
I1144
sg1496
I441
sg1497
I2295
sg1498
I2194
sg1499
I1956
sg1500
I2503
sg1501
I1925
sg1502
I871
sg1503
I235
sg1504
I3437
sg1505
I3573
sg1506
I110
sg1507
I1511
sg1508
I2689
sg1509
I2838
sg1510
I2868
sg1511
I570
sg1512
I744
sg1513
I2024
sg1514
I995
sg1515
I236
sg1516
I1540
sg1517
I1780
sg1518
I3891
sg1519
I804
sg1520
I3343
sg1521
I3121
sg1522
I3256
sg1523
I1965
sg1524
I3080
sg1525
I142
sg1526
I2229
sg1527
I59
sg1528
I176
sg1529
I4062
sg1530
I2873
sg1531
I942
sg1532
I1489
sg1533
I2056
sg1534
I2751
sg1535
I2066
sg1536
I700
sg1537
I2316
sg1538
I845
sg1539
I3062
sg1540
I1949
sg1541
I3405
sg1542
I931
sg1543
I2309
sg1544
I1120
sg1545
I308
sg1546
I3788
sg1547
I2862
sg1548
I1323
sg1549
I2735
sg1550
I143
sg1551
I791
sg1552
I1411
sg1553
I2383
sg1554
I2339
sg1555
I2142
sg1556
I3014
sg1557
I2023
sg1558
I2608
sg1559
I829
sg1560
I3585
sg1561
I3068
sg1562
I2084
sg1563
I3967
sg1564
I3285
sg1565
I1812
sg1566
I2036
sg1567
I2727
sg1568
I3602
sg1569
I1335
sg1570
I1913
sg1571
I3591
sg1572
I1592
sg1573
I2742
sg1574
I1206
sg1575
I1030
sg1576
I3911
sg1577
I774
sg1578
I2271
sg1579
I3606
sg1580
I1550
sg1581
I1026
sg1582
I2850
sg1583
I3310
sg1584
I2088
sg1585
I1509
sg1586
I215
sg1587
I3444
sg1588
I3115
sg1589
I1952
sg1590
I113
sg1591
I3699
sg1592
I3123
sg1593
I1050
sg1594
I2898
sg1595
I2587
sg1596
I1502
sg1597
I2557
sg1598
I2719
sg1599
I1060
sg1600
I3140
sg1601
I4111
sg1602
I2626
sg1603
I2114
sg1604
I2078
sS'3'
I1921
sg1605
I2600
sg1606
I26
sg1607
I1136
sg1608
I497
sg1609
I4032
sg1610
I1950
sg1611
I3631
sg1612
I1349
sg1613
I2692
sg1614
I2982
sg1615
I2631
sg1616
I3505
sg1617
I2157
sg1618
I2263
sg1619
I2800
sg1620
I953
sg1621
I1705
sg1622
I2573
sg1623
I293
sg1624
I2187
sg1625
I3714
sg1626
I1683
sg1627
I764
sg1628
I1017
sg1629
I2610
sg1630
I3925
sg1631
I3737
sg1632
I3795
sg1633
I2191
sg1634
I2219
sg1635
I4099
sg1636
I2700
sg1637
I2193
sg1638
I1885
sg1639
I2430
sg1640
I3868
sg1641
I3755
sg1642
I3662
sg1643
I2545
sg1644
I1512
sg1645
I2904
sg1646
I343
sg1647
I181
sg1648
I2343
sg1649
I2576
sg1650
I4063
sg1651
I3090
sg1652
I1301
sg1653
I2953
sg1654
I3533
sg1655
I2779
sg1656
I334
sg1657
I1923
sg1658
I3384
sg1659
I3141
sg1660
I3102
sg1661
I3161
sg1662
I3462
sg1663
I116
sg1664
I1057
sg1665
I858
sg1666
I3475
sg1667
I2579
sg1668
I1803
sg1669
I2298
sg1670
I4112
sg1671
I2133
sg1672
I1209
sg1673
I494
sg1674
I2028
sg1675
I1745
sg1676
I2791
sg1677
I2969
sg1678
I1628
sg1679
I1482
sg1680
I243
sg1681
I2413
sg1682
I1321
sg1683
I3091
sg1684
I2000
sg1685
I3804
sg1686
I1572
sg1687
I2841
sg1688
I2517
sg1689
I2981
sg1690
I2938
sg1691
I1055
sg1692
I1116
sg1693
I2581
sg1694
I682
sg1695
I1359
sg1696
I1319
sg1697
I1785
sg1698
I1416
sg1699
I785
sg1700
I3284
sg1701
I1700
sg1702
I797
sg1703
I228
sS's'
I309
sg1704
I2627
sg1705
I1472
sg1706
I3322
sg1707
I3391
sg1708
I1330
sg1709
I3047
sg1710
I1216
sg1711
I1356
sg1712
I1937
sg1713
I2519
sg1714
I1211
sg1715
I3024
sg1716
I3181
sg1717
I893
sg1718
I2174
sg1719
I2012
sg1720
I2914
sg1721
I1504
sg1722
I416
sg1723
I2776
sg1724
I1151
sg1725
I2530
sg1726
I2353
sg1727
I2621
sg1728
I3608
sg1729
I3927
sg1730
I245
sg1731
I1698
sg1732
I4011
sg1733
I2292
sg1734
I3940
sg1735
I3277
sg1736
I1857
sg1737
I843
sg1738
I2891
sg1739
I1720
sg1740
I2487
sg1741
I105
sg1742
I3525
sg1743
I3569
sg1744
I3942
sg1745
I3186
sg1746
I1798
sg1747
I3108
sg1748
I3778
sg1749
I3996
sg1750
I4091
sg1751
I2022
sg1752
I2611
sg1753
I2272
sg1754
I3896
sg1755
I1196
sg1756
I788
sg1757
I1114
sg1758
I1835
sg1759
I1679
sg1760
I2831
sg1761
I3059
sg1762
I825
sg1763
I1005
sg1764
I2269
sg1765
I3258
sg1766
I736
sg1767
I2536
sg1768
I3687
sg1769
I4138
sg1770
I1961
sg1771
I4069
sg1772
I3243
sg1773
I3095
sg1774
I1895
sg1775
I4072
sg1776
I3312
sg1777
I2407
sg1778
I1086
sg1779
I2651
sg1780
I1363
sg1781
I3645
sg1782
I822
sg1783
I2337
sg1784
I1986
sg1785
I2549
sg1786
I857
sg1787
I3301
sg1788
I1377
sg1789
I1775
sg1790
I671
sg1791
I1909
sg1792
I1839
sg1793
I3359
sg1794
I1186
sg1795
I1664
sg1796
I1160
sg1797
I3615
sg1798
I546
sg1799
I3566
sg1800
I663
sg1801
I1459
sg1802
I3327
sg1803
I1526
sg1804
I3100
sS'I'
I1260
sg1805
I2225
sg1806
I3504
sg1807
I3914
sg1808
I1178
sg1809
I3659
sg1810
I1490
sg1811
I2734
sg1812
I3340
sg1813
I2921
sg1814
I2521
sg1815
I2801
sg1816
I3487
sg1817
I22
sg1818
I3842
sg1819
I578
sg1820
I813
sg1821
I3521
sg1822
I9
sg1823
I676
sg1824
I3418
sg1825
I2575
sg1826
I1538
sg1827
I3756
sg1828
I1380
sg1829
I3175
sg1830
I3709
sg1831
I1429
sg1832
I1084
sg1833
I1372
sg1834
I196
sg1835
I873
sg1836
I1169
sg1837
I1251
sg1838
I867
sg1839
I3408
sg1840
I1876
sg1841
I52
sg1842
I1752
sg1843
I421
sg1844
I541
sg1845
I4097
sg1846
I351
sg1847
I2582
sg1848
I2537
sg1849
I2890
sg1850
I1653
sg1851
I2650
sg1852
I3332
sg1853
I1659
sg1854
I714
sg1855
I3144
sg1856
I3361
sg1857
I4108
sS'4'
I482
sg1858
I1996
sg1859
I405
sg1860
I1889
sg1861
I2385
sg1862
I1022
sg1863
I1204
sg1864
I2137
sg1865
I4
sg1866
I1340
sg1867
I2595
sg1868
I335
sg1869
I4106
sg1870
I3657
sg1871
I935
sg1872
I3075
sg1873
I687
sg1874
I1205
sg1875
I610
sg1876
I2696
sg1877
I2847
sg1878
I1891
sg1879
I2892
sg1880
I4125
sg1881
I3937
sg1882
I3279
sg1883
I3334
sg1884
I684
sg1885
I3474
sg1886
I2638
sg1887
I3008
sg1888
I3797
sg1889
I360
sS't'
I1133
sg1890
I2181
sg1891
I3099
sg1892
I810
sg1893
I1652
sg1894
I1384
sg1895
I1846
sg1896
I3187
sg1897
I783
sg1898
I1873
sg1899
I4114
sg1900
I1984
sg1901
I1078
sg1902
I148
sg1903
I1425
sg1904
I2987
sg1905
I371
sg1906
I2906
sg1907
I3689
sg1908
I1227
sg1909
I3225
sg1910
I3040
sg1911
I1132
sg1912
I2102
sg1913
I2616
sg1914
I475
sg1915
I1264
sg1916
I3398
sg1917
I3841
sg1918
I191
sg1919
I3742
sg1920
I728
sg1921
I2443
sg1922
I2893
sg1923
I2863
sg1924
I2654
sg1925
I273
sg1926
I1003
sg1927
I3609
sg1928
I1924
sg1929
I537
sg1930
I2255
sg1931
I154
sg1932
I1893
sg1933
I1261
sg1934
I185
sg1935
I447
sg1936
I3004
sg1937
I91
sg1938
I616
sg1939
I3164
sg1940
I2832
sg1941
I502
sg1942
I2416
sg1943
I3404
sg1944
I2347
sg1945
I2532
sg1946
I1580
sg1947
I535
sg1948
I3575
sg1949
I3381
sg1950
I422
sg1951
I3044
sg1952
I1197
sg1953
I3479
sg1954
I3083
sg1955
I3809
sg1956
I3994
sg1957
I2978
sg1958
I905
sg1959
I3808
sg1960
I517
sg1961
I2825
sg1962
I2855
sg1963
I779
sg1964
I1421
sg1965
I1972
sg1966
I1404
sg1967
I846
sg1968
I1280
sg1969
I172
sg1970
I2833
sg1971
I806
sg1972
I3696
sg1973
I2376
sg1974
I1325
sg1975
I611
sg1976
I1564
sg1977
I915
sg1978
I3776
sg1979
I2466
sg1980
I3524
sg1981
I3001
sg1982
I3604
sS'J'
I722
sg1983
I3021
sg1984
I394
sg1985
I2491
sg1986
I1799
sg1987
I1981
sg1988
I501
sg1989
I48
sg1990
I2396
sg1991
I1750
sg1992
I3188
sg1993
I1626
sg1994
I364
sg1995
I1906
sg1996
I3831
sg1997
I3850
sg1998
I2055
sg1999
I3362
sg2000
I961
sg2001
I830
sg2002
I2313
sg2003
I2401
sg2004
I3791
sg2005
I2619
sg2006
I1161
sg2007
I3806
sg2008
I2812
sg2009
I1128
sg2010
I2455
sg2011
I3050
sg2012
I2580
sg2013
I2118
sg2014
I1172
sg2015
I208
sg2016
I2032
sg2017
I170
sg2018
I1297
sg2019
I2
sg2020
I2524
sg2021
I1265
sg2022
I661
sg2023
I3944
sg2024
I1253
sg2025
I3042
sg2026
I2774
sg2027
I1085
sg2028
I1706
sg2029
I2210
sg2030
I2933
sg2031
I526
sg2032
I2461
sg2033
I1655
sg2034
I1148
sS'5'
I824
sg2035
I3397
sg2036
I60
sg2037
I24
sg2038
I1931
sg2039
I664
sg2040
I3819
sg2041
I1905
sg2042
I566
sg2043
I2427
sg2044
I796
sg2045
I1475
sg2046
I1208
sg2047
I101
sg2048
I2336
sg2049
I4090
sg2050
I1934
sg2051
I446
sg2052
I752
sg2053
I3506
sg2054
I1615
sg2055
I3844
sg2056
I3259
sg2057
I2091
sg2058
I2429
sg2059
I2029
sg2060
I1333
sg2061
I1545
sg2062
I3649
sg2063
I3586
sg2064
I2769
sg2065
I1890
sg2066
I538
sg2067
I3918
sg2068
I1376
sg2069
I2131
sS'u'
I1668
sg2070
I3529
sg2071
I92
sg2072
I3200
sg2073
I2598
sg2074
I3375
sg2075
I2217
sg2076
I316
sg2077
I2480
sg2078
I1308
sg2079
I3780
sg2080
I3237
sg2081
I1649
sg2082
I4019
sg2083
I2371
sg2084
I2678
sg2085
I3761
sg2086
I2695
sg2087
I162
sg2088
I3700
sg2089
I3489
sg2090
I2885
sg2091
I3220
sg2092
I3016
sg2093
I67
sg2094
I2795
sg2095
I3293
sg2096
I3199
sg2097
I356
sg2098
I1467
sg2099
I948
sg2100
I2823
sg2101
I1039
sg2102
I2500
sg2103
I2213
sg2104
I7
sg2105
I807
sg2106
I2380
sg2107
I8
sg2108
I1048
sg2109
I3777
sg2110
I2103
sg2111
I1361
sg2112
I1684
sg2113
I2274
sg2114
I152
sg2115
I2203
sg2116
I2478
sg2117
I2351
sg2118
I1523
sg2119
I3674
sg2120
I1155
sg2121
I11
sg2122
I4103
sg2123
I3157
sg2124
I3826
sg2125
I2372
sg2126
I2395
sg2127
I1563
sg2128
I1987
sg2129
I1113
sg2130
I1105
sg2131
I2293
sg2132
I1276
sg2133
I3051
sg2134
I568
sg2135
I457
sg2136
I2567
sg2137
I994
sg2138
I3168
sg2139
I1979
sg2140
I4076
sg2141
I3466
sg2142
I2931
sg2143
I2256
sg2144
I342
sg2145
I3130
sg2146
I466
sg2147
I2001
sg2148
I1143
sg2149
I3542
sg2150
I4088
sg2151
I367
sg2152
I1164
sg2153
I1167
sg2154
I3889
sg2155
I3912
sg2156
I606
sg2157
I444
sg2158
I704
sg2159
I219
sg2160
I2706
sg2161
I3897
sg2162
I2562
sg2163
I3003
sg2164
I4024
sg2165
I2454
sg2166
I2956
sg2167
I3382
sg2168
I112
sg2169
I3112
sg2170
I1528
sg2171
I3039
sg2172
I3395
sg2173
I3325
sg2174
I2849
sg2175
I1850
sg2176
I2685
sg2177
I3406
sg2178
I562
sg2179
I2672
sg2180
I2860
sg2181
I643
sg2182
I2423
sg2183
I1422
sg2184
I1914
sg2185
I1559
sg2186
I3906
sg2187
I3916
sg2188
I3665
sg2189
I2632
sg2190
I1992
sg2191
I1074
sg2192
I310
sg2193
I448
sg2194
I1719
sg2195
I2197
sg2196
I4053
sg2197
I2049
sg2198
I3029
sg2199
I1375
sg2200
I151
sg2201
I524
sg2202
I3069
sg2203
I1122
sg2204
I3568
sg2205
I2037
sg2206
I1001
sg2207
I3117
sg2208
I209
sg2209
I2565
sg2210
I733
sg2211
I3923
sg2212
I190
sg2213
I2249
sg2214
I1570
sg2215
I580
sg2216
I2505
sg2217
I2006
sg2218
I3307
sg2219
I3583
sg2220
I2009
sg2221
I3607
sg2222
I212
sg2223
I3863
sg2224
I3579
sg2225
I2312
sg2226
I239
sS'6'
I1283
sg2227
I455
sg2228
I1844
sg2229
I1647
sg2230
I2790
sg2231
I1695
sg2232
I480
sg2233
I50
sg2234
I493
sg2235
I4075
sg2236
I2163
sg2237
I1838
sg2238
I3380
sg2239
I386
sg2240
I138
sg2241
I3232
sg2242
I1407
sg2243
I3577
sg2244
I1569
sg2245
I991
sg2246
I2548
sg2247
I459
sg2248
I1399
sg2249
I2355
sg2250
I2138
sg2251
I3371
sg2252
I2488
sg2253
I2889
sg2254
I1102
sg2255
I1506
sg2256
I4021
sg2257
I1688
sg2258
I2288
sg2259
I876
sg2260
I294
sg2261
I808
sg2262
I2767
sg2263
I832
sg2264
I795
sg2265
I2878
sg2266
I2556
sg2267
I3546
sg2268
I515
sg2269
I2126
sg2270
I1066
sg2271
I1806
sg2272
I879
sg2273
I1171
sg2274
I3839
sg2275
I1542
sg2276
I577
sg2277
I4128
sg2278
I3400
sg2279
I3129
sg2280
I2964
sg2281
I973
sg2282
I1689
sg2283
I1137
sg2284
I2145
sg2285
I2835
sg2286
I2871
sg2287
I2509
sg2288
I731
sg2289
I3289
sg2290
I3106
sg2291
I3660
sg2292
I3189
sg2293
I2737
sg2294
I3390
sg2295
I2077
sg2296
I1423
sg2297
I198
sg2298
I1768
sg2299
I2472
sg2300
I839
sg2301
I2934
sg2302
I3276
sg2303
I2214
sg2304
I1817
sg2305
I2390
sg2306
I3846
sg2307
I111
sg2308
I2352
sg2309
I754
sg2310
I3661
sg2311
I842
sS'a'
I29
sg2312
I1070
sg2313
I2162
sg2314
I633
sg2315
I1413
sg2316
I559
sg2317
I300
sg2318
I665
sg2319
I1351
sg2320
I2788
sg2321
I3956
sg2322
I2324
sg2323
I1548
sg2324
I781
sg2325
I1856
sg2326
I1527
sg2327
I3138
sg2328
I2182
sg2329
I2920
sg2330
I532
sg2331
I1808
sg2332
I2189
sg2333
I1669
sg2334
I2686
sg2335
I3458
sg2336
I3879
sg2337
I826
sg2338
I307
sg2339
I1095
sg2340
I815
sg2341
I1096
sg2342
I1943
sg2343
I379
sg2344
I203
sg2345
I253
sg2346
I2468
sg2347
I3701
sg2348
I4003
sg2349
I2442
sg2350
I187
sg2351
I3515
sg2352
I3065
sg2353
I2247
sg2354
I886
sg2355
I179
sg2356
I1703
sg2357
I644
sg2358
I1886
sg2359
I1119
sg2360
I992
sg2361
I3127
sg2362
I1202
sg2363
I100
sg2364
I2031
sg2365
I2950
sg2366
I2092
sg2367
I3222
sg2368
I2469
sg2369
I3124
sg2370
I2123
sg2371
I486
sg2372
I1918
sg2373
I121
sg2374
I1888
sg2375
I3345
sg2376
I3553
sg2377
I3135
sg2378
I1997
sg2379
I3227
sg2380
I3330
sg2381
I3483
sg2382
I1279
sg2383
I4136
sg2384
I4134
sg2385
I4054
sg2386
I719
sg2387
I3011
sg2388
I2775
sg2389
I2504
sg2390
I536
sg2391
I411
sg2392
I352
sg2393
I1027
sg2394
I1052
sg2395
I747
sg2396
I2708
sg2397
I1353
sg2398
I1547
sg2399
I158
sg2400
I547
sg2401
I1805
sg2402
I2988
sg2403
I2457
sg2404
I4083
sg2405
I2382
sg2406
I2359
sg2407
I2117
sg2408
I3495
sg2409
I1861
sg2410
I901
sg2411
I2013
sg2412
I131
sg2413
I3000
sg2414
I3840
sg2415
I1696
sg2416
I3167
sg2417
I12
sg2418
I1367
sg2419
I96
sg2420
I1044
sg2421
I241
sg2422
I3430
sg2423
I2546
sg2424
I2615
sg2425
I658
sg2426
I624
sg2427
I3143
sg2428
I3952
sS'7'
I1505
sg2429
I720
sg2430
I890
sg2431
I3271
sg2432
I900
sg2433
I3373
sg2434
I647
sg2435
I161
sg2436
I1430
sg2437
I1246
sg2438
I1533
sg2439
I3288
sg2440
I407
sg2441
I3903
sg2442
I462
sg2443
I1087
sg2444
I3697
sg2445
I984
sg2446
I3870
sg2447
I1067
sg2448
I3836
sg2449
I2081
sg2450
I1593
sg2451
I3882
sg2452
I2108
sg2453
I319
sg2454
I1525
sg2455
I3871
sg2456
I3650
sg2457
I177
sg2458
I520
sg2459
I79
sg2460
I2419
sg2461
I2111
sg2462
I3767
sg2463
I4115
sg2464
I3281
sg2465
I2134
sg2466
I3691
sg2467
I479
sg2468
I3224
sg2469
I3663
sg2470
I333
sg2471
I2757
sg2472
I2433
sg2473
I2883
sg2474
I1748
sg2475
I1746
sg2476
I3658
sg2477
I2445
sg2478
I3974
sg2479
I2237
sg2480
I1630
sg2481
I3250
sg2482
I607
sg2483
I2234
sg2484
I2747
sg2485
I2955
sg2486
I2306
sg2487
I2494
sg2488
I1045
sg2489
I1112
sg2490
I1267
sg2491
I3564
sg2492
I531
sg2493
I3551
sg2494
I2268
sg2495
I1446
sg2496
I2948
sg2497
I2178
sg2498
I2761
sg2499
I414
sg2500
I2251
sg2501
I3629
sg2502
I1608
sg2503
I1386
sg2504
I823
sg2505
I4085
sg2506
I2100
sg2507
I694
sg2508
I2236
sg2509
I3880
sg2510
I2266
sg2511
I104
sg2512
I465
sg2513
I3433
sg2514
I3484
sg2515
I2450
sg2516
I1870
sg2517
I2986
sg2518
I3773
sg2519
I1946
sg2520
I2540
sg2521
I543
sg2522
I3303
sS'b'
I2206
sg2523
I2637
sg2524
I2805
sg2525
I3641
sg2526
I2996
sg2527
I1115
sg2528
I1743
sg2529
I439
sg2530
I3876
sg2531
I2002
sg2532
I3468
sg2533
I3536
sg2534
I2141
sg2535
I3341
sg2536
I2026
sg2537
I1344
sg2538
I3815
sg2539
I132
sg2540
I3228
sg2541
I599
sg2542
I4071
sg2543
I2015
sg2544
I3634
sg2545
I768
sg2546
I197
sg2547
I3180
sg2548
I4141
sg2549
I1190
sg2550
I1337
sg2551
I195
sg2552
I3368
sg2553
I86
sg2554
I2542
sg2555
I123
sg2556
I451
sg2557
I586
sg2558
I2725
sg2559
I1513
sg2560
I3832
sg2561
I1011
sg2562
I1971
sg2563
I3071
sg2564
I14
sg2565
I841
sg2566
I1453
sg2567
I3272
sg2568
I1534
sg2569
I1306
sg2570
I4042
sg2571
I3754
sg2572
I996
sg2573
I1199
sg2574
I3965
sg2575
I3007
sg2576
I3884
sg2577
I3958
sg2578
I31
sg2579
I1091
sg2580
I2241
sg2581
I2403
sg2582
I3274
sg2583
I2151
sg2584
I4143
sg2585
I3061
sg2586
I2960
sg2587
I76
sg2588
I3723
sg2589
I3267
sg2590
I1352
sg2591
I2129
sg2592
I1108
sg2593
I1560
sg2594
I2246
sg2595
I670
sg2596
I4087
sg2597
I1656
sg2598
I2796
sg2599
I1098
sg2600
I2458
sg2601
I2446
sg2602
I2437
sg2603
I1718
sg2604
I3985
sg2605
I2447
sg2606
I3247
sg2607
I3134
sg2608
I2973
sg2609
I2204
sg2610
I1928
sg2611
I3093
sg2612
I496
sg2613
I3820
sg2614
I3217
sg2615
I2634
sg2616
I3843
sg2617
I1445
sg2618
I3983
sg2619
I1477
sg2620
I2220
sg2621
I1708
sg2622
I2302
sg2623
I1702
sg2624
I2155
sg2625
I1874
sg2626
I3041
sg2627
I2721
sg2628
I363
sg2629
I2907
sg2630
I1726
sg2631
I2329
sg2632
I2348
sg2633
I397
sS'8'
I1123
sg2634
I1292
sg2635
I278
sg2636
I2972
sg2637
I83
sg2638
I899
sg2639
I3961
sg2640
I654
sg2641
I1537
sg2642
I3555
sg2643
I70
sg2644
I3728
sg2645
I144
sg2646
I3828
sg2647
I869
sg2648
I3635
sg2649
I2786
sg2650
I403
sg2651
I368
sg2652
I503
sg2653
I3901
sg2654
I2493
sg2655
I2014
sg2656
I2830
sg2657
I947
sg2658
I3114
sg2659
I1464
sg2660
I2594
sg2661
I3811
sg2662
I1624
sg2663
I2758
sg2664
I1860
sg2665
I2098
sg2666
I2475
sg2667
I3747
sg2668
I1980
sg2669
I993
sg2670
I1840
sg2671
I2704
sg2672
I1801
sg2673
I551
sg2674
I2526
sg2675
I2935
sg2676
I1955
sg2677
I1440
sg2678
I3292
sg2679
I3350
sg2680
I2917
sg2681
I205
sg2682
I2991
sg2683
I99
sg2684
I3893
sg2685
I398
sg2686
I3470
sg2687
I49
sg2688
I3176
sg2689
I4082
sg2690
I1485
sg2691
I1348
sg2692
I1395
sg2693
I1010
sg2694
I954
sg2695
I3402
sg2696
I3432
sg2697
I3291
sg2698
I1557
sg2699
I3993
sg2700
I3154
sg2701
I2644
sg2702
I178
sg2703
I1771
sg2704
I1933
sg2705
I1944
sg2706
I2908
sg2707
I1002
sg2708
I2075
sg2709
I697
sg2710
I2159
sg2711
I668
sg2712
I2053
sg2713
I1651
sg2714
I2011
sg2715
I2639
sg2716
I4078
sg2717
I706
sg2718
I1966
sg2719
I127
sS'c'
I1154
sg2720
I456
sg2721
I2923
sg2722
I3160
sg2723
I601
sg2724
I1346
sg2725
I331
sg2726
I2307
sg2727
I1219
sg2728
I283
sg2729
I3561
sg2730
I400
sg2731
I280
sg2732
I2474
sg2733
I3379
sg2734
I3744
sg2735
I1400
sg2736
I2614
sg2737
I385
sg2738
I2467
sg2739
I2629
sg2740
I581
sg2741
I3936
sg2742
I708
sg2743
I2490
sg2744
I2327
sg2745
I4084
sg2746
I4066
sg2747
I3324
sg2748
I1405
sg2749
I2941
sg2750
I1969
sg2751
I1031
sg2752
I2386
sg2753
I3477
sg2754
I3931
sg2755
I28
sg2756
I814
sg2757
I3335
sg2758
I2089
sg2759
I1999
sg2760
I1240
sg2761
I1317
sg2762
I2233
sg2763
I2971
sg2764
I1051
sg2765
I425
sg2766
I1147
sg2767
I690
sg2768
I365
sg2769
I495
sg2770
I1412
sg2771
I1195
sg2772
I1343
sg2773
I2248
sg2774
I2040
sg2775
I1945
sg2776
I1189
sg2777
I1229
sg2778
I3387
sS'N'
I2010
sg2779
I2607
sg2780
I3096
sg2781
I2603
sg2782
I2596
sg2783
I3348
sg2784
I413
sg2785
I2693
sg2786
I4022
sg2787
I3139
sg2788
I634
sg2789
I321
sg2790
I3924
sg2791
I3749
sg2792
I126
sg2793
I3198
sg2794
I1304
sg2795
I1159
sg2796
I314
sg2797
I150
sg2798
I2110
sg2799
I2144
sg2800
I3877
sg2801
I1555
sg2802
I635
sg2803
I2802
sg2804
I3060
sg2805
I3010
sg2806
I1821
sg2807
I3442
sg2808
I2287
sg2809
I3578
sg2810
I3290
sg2811
I3064
sg2812
I1514
sg2813
I2367
sg2814
I2492
sg2815
I2648
sg2816
I2717
sg2817
I237
sg2818
I1336
sg2819
I1818
sg2820
I2086
sg2821
I3031
sg2822
I3612
sg2823
I3378
sg2824
I453
sg2825
I3976
sg2826
I1852
sg2827
I4016
sS'9'
I260
sg2828
I2061
sg2829
I3120
sg2830
I3954
sg2831
I2746
sg2832
I2484
sg2833
I45
sg2834
I2432
sg2835
I2079
sg2836
I1614
sg2837
I3848
sg2838
I2946
sg2839
I2476
sg2840
I3414
sg2841
I1099
sg2842
I745
sg2843
I1049
sg2844
I1960
sg2845
I685
sg2846
I2363
sg2847
I2523
sg2848
I303
sg2849
I107
sg2850
I1293
sg2851
I1729
sg2852
I3183
sg2853
I3229
sg2854
I2397
sg2855
I1170
sg2856
I1223
sg2857
I477
sg2858
I1554
sg2859
I1373
sg2860
I4040
sg2861
I1777
sg2862
I2331
sS'y'
I56
sg2863
I812
sg2864
I4028
sg2865
I1008
sg2866
I3111
sg2867
I1786
sg2868
I3213
sg2869
I1654
sg2870
I3248
sg2871
I1601
sg2872
I2192
sg2873
I698
sg2874
I1604
sg2875
I2017
sg2876
I2299
sg2877
I4079
sg2878
I1988
sg2879
I109
sg2880
I3171
sg2881
I2400
sg2882
I4127
sg2883
I2759
sg2884
I3403
sg2885
I3981
sg2886
I3990
sg2887
I1613
sg2888
I1691
sg2889
I3818
sg2890
I2713
sg2891
I3035
sg2892
I2464
sg2893
I2135
sg2894
I2676
sg2895
I1595
sg2896
I2929
sg2897
I619
sg2898
I1976
sg2899
I1233
sg2900
I770
sg2901
I3945
sg2902
I4077
sg2903
I1403
sg2904
I3771
sg2905
I852
sg2906
I1295
sg2907
I1756
sg2908
I3058
sg2909
I1274
sg2910
I450
sg2911
I924
sg2912
I1158
sg2913
I1076
sg2914
I574
sg2915
I3153
sg2916
I3584
sg2917
I2910
sg2918
I2093
sg2919
I2373
sg2920
I3926
sS'd'
I361
sg2921
I3363
sg2922
I638
sg2923
I1970
sg2924
I683
sg2925
I470
sg2926
I4107
sg2927
I3326
sg2928
I1021
sg2929
I423
sg2930
I4073
sg2931
I2853
sg2932
I1493
sg2933
I2161
sg2934
I238
sg2935
I3881
sg2936
I4025
sg2937
I3452
sg2938
I3907
sg2939
I2153
sg2940
I145
sg2941
I272
sg2942
I2658
sg2943
I1571
sg2944
I1298
sg2945
I175
sg2946
I3783
sg2947
I3255
sg2948
I1787
sg2949
I326
sg2950
I1643
sg2951
I117
sg2952
I2008
sg2953
I3253
sg2954
I1621
sg2955
I2279
sg2956
I2338
sg2957
I229
sg2958
I2424
sg2959
I940
sg2960
I1915
sg2961
I3048
sg2962
I3076
sg2963
I1967
sg2964
I1731
sg2965
I3480
sg2966
I980
sg2967
I533
sg2968
I44
sg2969
I2294
sg2970
I3685
sg2971
I1531
sg2972
I573
sg2973
I655
sg2974
I756
sg2975
I3668
sg2976
I969
sg2977
I3878
sg2978
I3246
sg2979
I139
sg2980
I3698
sg2981
I558
sg2982
I4049
sg2983
I3336
sg2984
I2115
sg2985
I435
sg2986
I2535
sg2987
I3621
sg2988
I819
sg2989
I721
sg2990
I3184
sg2991
I2943
sg2992
I3580
sg2993
I3158
sg2994
I2453
sg2995
I2666
sg2996
I3949
sg2997
I1185
sg2998
I2140
sg2999
I1619
sg3000
I1507
sg3001
I3415
sg3002
I3807
sg3003
I1658
sg3004
I3409
sg3005
I35
sg3006
I2107
sg3007
I1494
sg3008
I1193
sg3009
I1109
sg3010
I2571
sg3011
I2305
sg3012
I120
sg3013
I693
sg3014
I4117
sg3015
I1368
sg3016
I3136
sg3017
I1201
sg3018
I2554
sg3019
I3720
sg3020
I1401
sg3021
I617
sg3022
I2623
sg3023
I3309
sg3024
I1929
sg3025
I163
sg3026
I1230
sg3027
I433
sg3028
I3147
sg3029
I1588
sg3030
I2593
sg3031
I1471
sg3032
I3513
sg3033
I1813
sg3034
I3367
sg3035
I2882
sg3036
I3941
sg3037
I4101
sg3038
I3482
sg3039
I3465
sg3040
I3822
sg3041
I1810
sg3042
I2553
sg3043
I1447
sg3044
I3671
sg3045
I1894
sg3046
I1173
sg3047
I1903
sg3048
I2806
sg3049
I1552
sg3050
I2646
sg3051
I1043
sg3052
I2919
sg3053
I1829
sg3054
I1562
sg3055
I583
sg3056
I2828
sg3057
I630
sg3058
I2975
sg3059
I95
sg3060
I1299
sg3061
I1671
sg3062
I3946
sg3063
I1424
sg3064
I2531
sg3065
I320
sg3066
I1788
sg3067
I2589
sg3068
I916
sg3069
I593
sg3070
I918
sg3071
I1176
sg3072
I3236
sg3073
I1686
sS'm'
I1286
sg3074
I1152
sg3075
I3148
sg3076
I2764
sg3077
I1816
sg3078
I1723
sg3079
I4013
sg3080
I2864
sg3081
I666
sg3082
I3628
sg3083
I2041
sg3084
I3950
sg3085
I3347
sg3086
I1568
sg3087
I1639
sg3088
I3497
sg3089
I3026
sg3090
I1858
sg3091
I3570
sg3092
I3630
sg3093
I1995
sg3094
I4044
sg3095
I4144
sg3096
I3982
sg3097
I746
sg3098
I3265
sg3099
I4074
sg3100
I2760
sg3101
I3235
sg3102
I1898
sg3103
I1612
sg3104
I1951
sg3105
I2240
sg3106
I861
sg3107
I2223
sg3108
I2979
sg3109
I912
sg3110
I975
sg3111
I653
sg3112
I952
sg3113
I587
sg3114
I3038
sg3115
I2167
sg3116
I1063
sg3117
I763
sg3118
I3830
sg3119
I3337
sS'e'
I805
sg3120
I3354
sg3121
I2069
sg3122
I2993
sg3123
I3321
sg3124
I1776
sg3125
I3459
sg3126
I1466
sg3127
I267
sg3128
I424
sg3129
I766
sg3130
I2539
sg3131
I3178
sg3132
I919
sg3133
I748
sg3134
I3472
sg3135
I346
sg3136
I2936
sg3137
I1396
sg3138
I2732
sg3139
I4124
sg3140
I782
sg3141
I340
sg3142
I757
sg3143
I2361
sg3144
I1710
sg3145
I530
sg3146
I1742
sg3147
I4060
sg3148
I93
sg3149
I2661
sg3150
I2712
sg3151
I3636
sg3152
I2156
sg3153
I3727
sg3154
I2451
sg3155
I897
sg3156
I962
sg3157
I4100
sg3158
I2282
sg3159
I2280
sg3160
I737
sg3161
I1920
sg3162
I2325
sg3163
I1192
sg3164
I734
sg3165
I1853
sg3166
I817
sg3167
I2289
sg3168
I345
sg3169
I3311
sg3170
I249
sg3171
I4131
sg3172
I4098
sg3173
I3932
sg3174
I572
sg3175
I1953
sg3176
I255
sg3177
I528
sg3178
I3221
sS'f'
I1715
sg3179
I156
sg3180
I3269
sg3181
I1738
sg3182
I2479
sg3183
I2999
sg3184
I834
sg3185
I3241
sg3186
I3365
sg3187
I1093
sg3188
I3864
sg3189
I1635
sg3190
I2435
sg3191
I2501
sg3192
I2392
sg3193
I2411
sg3194
I3517
sg3195
I2171
sg3196
I291
sg3197
I3364
sg3198
I336
sg3199
I2215
sg3200
I1782
sg3201
I1092
sg3202
I82
sg3203
I254
sg3204
I1543
sg3205
I3535
sg3206
I811
sg3207
I2202
sg3208
I1899
sg3209
I2238
sg3210
I1851
sg3211
I2183
sg3212
I3588
sg3213
I3245
sg3214
I3078
sg3215
I3092
sg3216
I1529
sg3217
I2262
sg3218
I4037
sg3219
I2264
sg3220
I1674
sg3221
I2641
sg3222
I1111
sg3223
I1722
sg3224
I3597
sg3225
I4017
sg3226
I2739
sg3227
I2410
sg3228
I3131
sg3229
I855
sg3230
I1990
sg3231
I862
sg3232
I2529
sg3233
I3632
sg3234
I3673
sg3235
I2655
sg3236
I2584
sg3237
I1645
sg3238
I55
sg3239
I2185
sg3240
I1444
sg3241
I106
sg3242
I1637
sg3243
I1646
sg3244
I2164
sg3245
I1930
sg3246
I220
sg3247
I576
sg3248
I1288
sg3249
I3185
sg3250
I3323
sg3251
I1755
sg3252
I2585
sg3253
I3618
sg3254
I2765
sg3255
I4067
sg3256
I885
sg3257
I3329
sg3258
I3182
sg3259
I1577
sg3260
I393
sg3261
I3853
sg3262
I3682
sg3263
I1262
sg3264
I2275
sg3265
I141
sg3266
I1681
sg3267
I3743
sg3268
I1184
sg3269
I3283
sg3270
I3998
sg3271
I285
sg3272
I3152
sg3273
I777
sg3274
I2569
sg3275
I2449
sg3276
I2601
sg3277
I2489
sg3278
I2900
sg3279
I1390
sg3280
I2420
sg3281
I2345
sg3282
I669
sg3283
I1594
sg3284
I4118
sg3285
I966
sg3286
I32
sg3287
I1697
sg3288
I2797
sg3289
I329
sg3290
I4051
sg3291
I2260
sg3292
I1663
sg3293
I2730
sg3294
I724
sg3295
I1521
sg3296
I23
sg3297
I2286
sg3298
I328
sg3299
I2323
sg3300
I3721
sg3301
I2516
sg3302
I1551
sg3303
I2502
sg3304
I2710
sg3305
I1926
sg3306
I2169
sg3307
I2507
sg3308
I427
sg3309
I1727
sg3310
I3764
sg3311
I3207
sg3312
I417
sg3313
I1029
sg3314
I1418
sg3315
I1900
sg3316
I3683
sg3317
I1138
sg3318
I2440
sg3319
I180
sg3320
I641
sg3321
I1004
sg3322
I1503
sg3323
I3619
sg3324
I2763
sg3325
I2473
sg3326
I1320
sg3327
I2691
sg3328
I3718
sg3329
I1833
sg3330
I3970
sg3331
I2770
sg3332
I1198
sg3333
I3858
sg3334
I3968
sg3335
I2622
sg3336
I2876
sg3337
I1315
sg3338
I3357
sg3339
I380
sg3340
I3960
sg3341
I519
sg3342
I1441
sg3343
I2784
sg3344
I3827
sg3345
I3772
sg3346
I3498
sg3347
I1778
sg3348
I1939
sg3349
I1598
sg3350
I2460
sg3351
I3669
sg3352
I3887
sg3353
I37
sg3354
I3055
sg3355
I3770
sg3356
I434
sg3357
I2989
sg3358
I3541
sg3359
I567
sg3360
I2834
sg3361
I4036
sg3362
I4029
sg3363
I2552
sg3364
I3159
sg3365
I1038
sg3366
I337
sg3367
I2714
sg3368
I323
sg3369
I1549
sg3370
I618
sg3371
I3910
sg3372
I990
sg3373
I2793
sg3374
I3610
sg3375
I2630
sg3376
I1318
sg3377
I313
sg3378
I3693
sg3379
I3977
sg3380
I3411
sg3381
I2977
sg3382
I1875
sg3383
I3598
sg3384
I3605
sg3385
I2513
sg3386
I2667
sg3387
I656
sg3388
I608
sg3389
I1661
sg3390
I3318
sg3391
I2674
sg3392
I2702
sg3393
I1498
sg3394
I2027
sg3395
I3710
sg3396
I3511
sg3397
I3086
sg3398
I1814
sg3399
I2021
sg3400
I1975
sg3401
I828
sg3402
I632
sg3403
I623
sg3404
I3469
sg3405
I773
sg3406
I1385
sg3407
I276
sg3408
I1019
sg3409
I1107
sg3410
I2506
sg3411
I883
sg3412
I1307
sg3413
I3088
sg3414
I2431
sg3415
I2755
sg3416
I3775
sg3417
I691
sg3418
I2065
sg3419
I65
sg3420
I3886
sg3421
I2745
sg3422
I1524
sg3423
I3812
sg3424
I2875
sg3425
I1672
sg3426
I959
sg3427
I2438
sg3428
I596
sg3429
I1035
sg3430
I1235
sg3431
I925
sg3432
I2837
sg3433
I3445
sg3434
I1825
sg3435
I1760
sg3436
I3275
sg3437
I3730
sg3438
I2577
sg3439
I1878
sg3440
I998
sg3441
I510
sg3442
I2618
sg3443
I2694
sg3444
I1827
sg3445
I2842
sg3446
I3202
sg3447
I136
sg3448
I838
sg3449
I2439
sg3450
I1733
sg3451
I3455
sg3452
I809
sg3453
I4034
sg3454
I1451
sg3455
I3784
sg3456
I3684
sg3457
I1009
sg3458
I3867
sg3459
I1452
sg3460
I1794
sg3461
I483
sg3462
I468
sg3463
I1536
sg3464
I3212
sg3465
I3486
sg3466
I1457
sg3467
I200
sg3468
I4095
sg3469
I2592
sg3470
I1963
sS"'"
I2574
sg3471
I3209
sg3472
I1869
sg3473
I2495
sg3474
I3485
sg3475
I2528
sg3476
I3719
sg3477
I3676
sg3478
I1586
sg3479
I3098
sg3480
I2599
sg3481
I2899
sg3482
I1901
sg3483
I3611
sg3484
I1072
sg3485
I2384
sg3486
I2783
sg3487
I1488
sg3488
I1761
sg3489
I1792
sg3490
I974
sg3491
I725
sg3492
I657
sg3493
I3527
sg3494
I507
sg3495
I3206
sg3496
I3118
sg3497
I2051
sg3498
I1680
sg3499
I1357
sg3500
I3126
sS'g'
I847
sg3501
I42
sg3502
I1709
sg3503
I3317
sg3504
I437
sg3505
I317
sg3506
I3308
sg3507
I3017
sg3508
I1312
sg3509
I3672
sg3510
I3765
sg3511
I128
sg3512
I3652
sg3513
I3616
sg3514
I3829
sg3515
I3530
sg3516
I1824
sg3517
I2604
sg3518
I1558
sg3519
I1492
sg3520
I3196
sg3521
I2375
sg3522
I2731
sg3523
I2744
sg3524
I1974
sg3525
I2879
sg3526
I115
sg3527
I62
sg3528
I3457
sg3529
I218
sg3530
I2738
sg3531
I512
sg3532
I357
sg3533
I1596
sg3534
I206
sg3535
I1243
sg3536
I2945
sg3537
I1175
sg3538
I287
sg3539
I384
sg3540
I1602
sg3541
I2212
sg3542
I1311
sg3543
I2951
sg3544
I2071
sg3545
I125
sg3546
I1061
sg3547
I1054
sg3548
I1978
sg3549
I1476
sS'R'
I637
sg3550
I1600
sg3551
I2664
sg3552
I2930
sg3553
I3587
sg3554
I2736
sg3555
I297
sg3556
I3594
sg3557
I1936
sg3558
I2684
sg3559
I1576
sg3560
I837
sg3561
I4123
sg3562
I1815
sg3563
I2829
sg3564
I646
sg3565
I692
sg3566
I2612
sg3567
I2985
sg3568
I3443
sg3569
I3740
sg3570
I2441
sg3571
I2332
sg3572
I3782
sg3573
I3356
sg3574
I3045
sg3575
I3019
sg3576
I2918
sg3577
I3614
sg3578
I3793
sg3579
I5
sg3580
I1007
sg3581
I3574
sg3582
I2559
sg3583
I2374
sg3584
I3590
sg3585
I3488
sg3586
I1387
sg3587
I3904
sg3588
I3866
sg3589
I3991
sg3590
I2254
sg3591
I922
sg3592
I3070
sg3593
I3711
sg3594
I3346
sg3595
I438
sg3596
I2308
sg3597
I1338
sg3598
I3030
sg3599
I3648
sg3600
I1789
sg3601
I4007
sg3602
I274
sg3603
I3431
sg3604
I412
sg3605
I2673
sg3606
I2877
sg3607
I2152
sg3608
I1062
sg3609
I418
sg3610
I1998
sg3611
I2095
sg3612
I2038
sg3613
I2748
sg3614
I2541
sg3615
I3722
sg3616
I1345
sg3617
I2072
sg3618
I3729
sg3619
I2463
sg3620
I1767
sg3621
I3939
sg3622
I3297
sg3623
I2377
sg3624
I3149
sg3625
I268
sg3626
I3231
sg3627
I628
sg3628
I1419
sg3629
I2393
sg3630
I1287
sg3631
I1642
sg3632
I2120
sg3633
I1156
sg3634
I2405
sg3635
I950
sg3636
I509
sg3637
I1917
sg3638
I3191
sg3639
I1912
sg3640
I2613
sg3641
I2640
sg3642
I2230
sg3643
I550
sg3644
I3803
sg3645
I4109
sg3646
I1957
sg3647
I3313
sg3648
I1744
sg3649
I355
sg3650
I2258
sg3651
I716
sg3652
I3233
sg3653
I968
sg3654
I913
sg3655
I370
sg3656
I318
sg3657
I130
sg3658
I1090
sg3659
I1753
sg3660
I2992
sg3661
I3895
sg3662
I265
sg3663
I160
sg3664
I498
sg3665
I3537
sg3666
I3948
sg3667
I613
sg3668
I3695
sg3669
I3763
sg3670
I2590
sg3671
I2679
sg3672
I3260
sg3673
I2127
sg3674
I718
sg3675
I1732
sg3676
I4126
sg3677
I3306
sg3678
I3456
sg3679
I3463
sg3680
I1166
sg3681
I1200
sg3682
I686
sg3683
I2418
sg3684
I3009
sg3685
I971
sg3686
I1037
sg3687
I3988
sg3688
I1142
sg3689
I1575
sg3690
I2772
sg3691
I1994
sg3692
I2235
sg3693
I2179
sg3694
I464
sg3695
I1342
sS'C'
I1692
sg3696
I882
sg3697
I2628
sg3698
I1784
sg3699
I213
sg3700
I3816
sg3701
I2699
sg3702
I2840
sg3703
I3163
sg3704
I3073
sg3705
I1867
sg3706
I3328
sg3707
I2221
sg3708
I3595
sg3709
I391
sg3710
I945
sg3711
I1842
sg3712
I153
sg3713
I3865
sg3714
I155
sg3715
I3230
sg3716
I928
sg3717
I1236
sg3718
I3528
sg3719
I2902
sg3720
I2222
sg3721
I3703
sg3722
I1757
sg3723
I590
sg3724
I1947
sg3725
I545
sg3726
I3554
sg3727
I3119
sg3728
I2857
sg3729
I2944
sg3730
I3748
sS'S'
I18
sg3731
I2459
sg3732
I2720
sg3733
I1268
sg3734
I1222
sS'w'
I2113
sg3735
I3172
sg3736
I2903
sg3737
I2870
sg3738
I4000
sg3739
I406
sg3740
I2750
sg3741
I1290
sg3742
I3194
sg3743
I1518
sg3744
I1910
sg3745
I1871
sg3746
I2096
sg3747
I3105
sg3748
I3823
sg3749
I3424
sg3750
I3625
sg3751
I2896
sg3752
I1749
sg3753
I122
sg3754
I1887
sg3755
I3197
sg3756
I1281
sg3757
I2984
sg3758
I3252
sg3759
I3545
sg3760
I3572
sg3761
I625
sg3762
I1218
sg3763
I2019
sg3764
I3507
sg3765
I2322
sg3766
I3664
sg3767
I2729
sg3768
I1539
sg3769
I1941
sg3770
I3899
sg3771
I941
sg3772
I3800
sg3773
I2852
sg3774
I2346
sg3775
I848
sg3776
I3195
sg3777
I2591
sg3778
I4020
sg3779
I1468
sg3780
I3349
sg3781
I4056
sg3782
I1393
sg3783
I1863
sg3784
I741
sg3785
I324
sg3786
I2018
sg3787
I2148
sg3788
I2291
sg3789
I640
sg3790
I270
sg3791
I1242
sg3792
I1263
sg3793
I2698
sg3794
I2520
sg3795
I3079
sg3796
I2211
sg3797
I472
sg3798
I3033
sg3799
I1125
sg3800
I908
sg3801
I726
sg3802
I1077
sg3803
I2645
sg3804
I2052
sg3805
I906
sg3806
I487
sg3807
I1811
sg3808
I71
sg3809
I891
sg3810
I1644
sg3811
I1362
sg3812
I3435
sg3813
I907
sg3814
I3369
sg3815
I1616
sg3816
I4043
sg3817
I1025
sg3818
I1428
sg3819
I2477
sg3820
I73
sg3821
I102
sg3822
I4113
sg3823
I889
sg3824
I1145
sg3825
I895
sg3826
I3624
sg3827
I2062
sg3828
I2965
sg3829
I3752
sg3830
I2456
sg3831
I1690
sg3832
I2728
sg3833
I3193
sg3834
I3104
sg3835
I1410
sg3836
I4038
sg3837
I1473
sg3838
I2897
sg3839
I2547
sg3840
I1303
sg3841
I377
sg3842
I240
sg3843
I2522
sg3844
I2366
sg3845
I827
sg3846
I1892
sg3847
I2003
sg3848
I2042
sg3849
I3963
sg3850
I3254
sg3851
I358
sg3852
I742
sg3853
I3694
sg3854
I1675
sg3855
I461
sg3856
I3654
sg3857
I3107
sg3858
I4010
sg3859
I3984
sg3860
I2690
sg3861
I304
sg3862
I1677
sg3863
I4093
sS'i'
I851
sg3864
I660
sg3865
I1479
sg3866
I449
sg3867
I1326
sg3868
I985
sg3869
I85
sg3870
I1081
sg3871
I2915
sg3872
I1985
sg3873
I2909
sg3874
I2099
sg3875
I1305
sg3876
I863
sg3877
I2609
sg3878
I1450
sg3879
I4046
sg3880
I2652
sg3881
I831
sg3882
I1013
sg3883
I2085
sg3884
I1515
sg3885
I1618
sg3886
I1848
sg3887
I2245
sg3888
I2756
sg3889
I4120
sg3890
I909
sg3891
I284
sg3892
I4081
sg3893
I3412
sg3894
I2874
sg3895
I3013
sg3896
I2624
sg3897
I10
sg3898
I3539
sg3899
I2880
sg3900
I2543
sg3901
I216
sg3902
I4137
sg3903
I1993
sg3904
I1369
sg3905
I72
sg3906
I259
sg3907
I1790
sg3908
I1101
sg3909
I2186
sg3910
I4059
sg3911
I3655
sg3912
I544
sg3913
I944
sg3914
I1183
sg3915
I751
sg3916
I3162
sg3917
I997
sg3918
I98
sg3919
I1277
sg3920
I1940
sg3921
I3979
sg3922
I2481
sS'T'
I588
sg3923
I759
sg3924
I2360
sg3925
I540
sg3926
I715
sg3927
I1089
sg3928
I2409
sg3929
I1807
sg3930
I1436
sg3931
I3516
sg3932
I1584
sg3933
I1433
sg3934
I3971
sg3935
I542
sg3936
I467
sg3937
I645
sg3938
I1793
sg3939
I3758
sg3940
I1879
sg3941
I4086
sg3942
I1666
sg3943
I469
sg3944
I2566
sg3945
I2290
sg3946
I1959
sg3947
I401
sg3948
I2319
sg3949
I3476
sg3950
I1868
sg3951
I3962
sg3952
I2817
sg3953
I784
sg3954
I3900
sg3955
I2105
sg3956
I2777
sg3957
I575
sg3958
I2239
sg3959
I3478
sg3960
I420
sg3961
I1882
sg3962
I1942
sg3963
I710
sg3964
I2578
sg3965
I3429
sg3966
I1239
sg3967
I3599
sg3968
I1501
sg3969
I1567
sg3970
I3633
sg3971
I1964
sg3972
I1174
sg3973
I1721
sg3974
I4055
sg3975
I2119
sg3976
I2597
sS'r'
I1828
sg3977
I3316
sg3978
I292
sg3979
I1897
sg3980
I1773
sg3981
I373
sg3982
I2851
sg3983
I2281
sg3984
I2836
sg3985
I2387
sg3986
I979
sg3987
I2682
sg3988
I1455
sg3989
I2149
sg3990
I1016
sg3991
I3725
sg3992
I2854
sg3993
I2112
sg3994
I1392
sg3995
I3032
sg3996
I1041
sg3997
I2768
sg3998
I870
sg3999
I3600
sg4000
I3461
sg4001
I3344
sg4002
I2636
sg4003
I188
sg4004
I3268
sg4005
I277
sg4006
I1694
sg4007
I688
sg4008
I3613
sg4009
I2962
sg4010
I3278
sg4011
I4012
sg4012
I68
sg4013
I793
sg4014
I1
sg4015
I1519
sg4016
I2976
sg4017
I914
sg4018
I539
sg4019
I426
sg4020
I723
sg4021
I3735
sg4022
I3423
sg4023
I431
sg4024
I506
sg4025
I2602
sg4026
I712
sg4027
I3861
sg4028
I2170
sg4029
I3526
sg4030
I3399
sg4031
I989
sg4032
I3392
sg4033
I38
sg4034
I3951
sg4035
I362
sg4036
I159
sg4037
I3094
sg4038
I2846
sg4039
I3205
sg4040
I2421
sg4041
I3824
sg4042
I2350
sg4043
I821
sg4044
I534
sg4045
I569
sg4046
I1187
sg4047
I1535
sg4048
I3957
sg4049
I727
sg4050
I3622
sg4051
I2083
sg4052
I1426
sg4053
I835
sg4054
I3852
sg4055
I1804
sg4056
I2635
sg4057
I2733
sg4058
I579
sg4059
I4065
sg4060
I2073
sg4061
I1676
sg4062
I1358
sg4063
I3549
sg4064
I3298
sg4065
I2586
sg4066
I499
sg4067
I1300
sg4068
I227
sg4069
I3801
sg4070
I2046
sg4071
I1438
sg4072
I1617
sg4073
I169
sg4074
I1522
sg4075
I3565
sg4076
I4018
sg4077
I584
sg4078
I3499
sg4079
I2949
sg4080
I353
sg4081
I659
sg4082
I20
sg4083
I1927
sg4084
I4048
sg4085
I246
sg4086
I290
sg4087
I16
sg4088
I3675
sg4089
I372
sg4090
I2277
sg4091
I552
sg4092
I3523
sg4093
I3969
sg4094
I3333
sg4095
I186
sg4096
I958
sg4097
I2005
sg4098
I3860
sg4099
I1880
sg4100
I2752
sg4101
I4030
sS'U'
I17
sg4102
I3581
sg4103
I2116
sg4104
I3975
sg4105
I2180
sg4106
I389
sg4107
I2080
sg4108
I3651
sg4109
I3857
sg4110
I3190
sg4111
I1938
sg4112
I1257
sg4113
I301
sg4114
I1040
sg4115
I600
sg4116
I2722
sg4117
I753
sg4118
I3025
sg4119
I2807
sg4120
I2642
sg4121
I3666
sg4122
I3920
ssS'_reverse_mapping'
p4125
(lp4126
g12
ag4014
ag2019
ag978
ag1865
ag3579
ag705
ag2104
ag2107
ag1822
ag3897
ag2121
ag2417
ag1478
ag2564
ag758
ag4087
aS'U'
aS'S'
ag153
ag4082
ag808
ag1817
ag3296
ag2037
ag807
ag1606
ag956
ag2755
aS'a'
ag641
ag2578
ag3286
ag960
ag744
ag3005
ag280
ag3353
ag4033
ag150
ag765
ag750
ag3501
ag771
ag2968
ag2833
ag680
ag1095
ag1989
ag2687
ag2233
ag1490
ag1841
ag410
ag1319
ag3238
aS'y'
ag1295
ag660
ag1527
ag2036
ag1440
ag3527
ag96
ag1291
ag3419
ag220
ag2093
ag4012
ag1118
ag2643
ag3808
ag3905
ag3820
ag333
ag1294
ag2587
ag762
ag218
ag2459
ag844
ag119
ag3202
ag2637
ag941
ag3869
ag2553
ag1241
ag836
ag958
ag1454
ag1937
ag2071
ag3148
ag558
ag3059
ag2419
ag1493
ag3918
ag2683
ag2363
ag2047
ag3821
ag600
ag2511
ag1741
ag3241
ag2849
ag1369
ag2879
ag1506
ag2307
ag2168
ag1590
ag739
ag3526
ag1663
ag2951
ag795
ag1165
ag3012
ag2373
ag3753
ag2555
aS'A'
ag3545
ag2792
ag2719
ag3511
ag983
ag3657
ag2412
ag2539
ag266
ag146
ag748
ag3447
ag1208
ag2240
ag2979
ag631
ag3265
ag1525
ag1550
ag2645
ag2940
ag776
ag730
ag1902
ag1100
ag2797
ag2200
ag2114
ag3712
ag1931
ag3714
ag3179
ag1315
ag2399
ag4036
ag3663
ag2435
ag2087
ag3025
ag262
ag1150
ag810
ag876
ag1382
ag4073
ag2017
ag1140
ag1969
ag1012
ag76
ag2945
ag1528
ag2457
ag2702
ag2355
ag3319
ag1647
ag391
ag615
ag39
ag1934
ag4095
ag2350
ag4003
ag125
ag2212
ag1918
ag1108
ag673
ag834
ag2551
ag1834
ag2546
ag2297
ag1455
ag3467
ag116
ag1020
ag2344
ag480
ag2681
ag3534
ag666
ag2015
ag2208
ag440
ag408
ag2222
ag3699
ag121
ag1586
ag3901
ag1393
ag3529
ag2159
ag3246
ag373
ag626
ag174
ag918
ag1358
ag927
ag4068
ag1703
ag2957
ag132
ag674
ag997
ag861
ag1357
ag1503
ag1515
ag2817
ag2934
ag2226
ag3842
ag2421
ag1270
ag1680
ag1477
ag1730
ag4085
ag731
ag1475
ag3170
ag1045
ag778
ag894
ag2345
ag3203
ag3176
ag1023
ag436
ag873
ag3906
aS'9'
ag1039
ag725
ag950
ag879
ag3662
ag470
ag3127
ag3625
ag859
ag3790
ag376
ag2941
ag1925
ag3602
ag1038
ag3407
ag4005
ag2635
ag503
ag2731
ag1120
ag414
ag2728
ag3891
ag3271
ag504
ag3538
ag346
ag294
ag4086
ag3196
ag3978
ag1623
ag2260
ag923
ag451
ag3555
ag67
ag234
ag2317
ag4113
ag1460
ag2848
ag3861
ag18
ag1233
ag2338
ag1545
aS's'
ag2192
ag1250
ag1353
ag3377
ag2796
ag317
ag2076
ag3505
ag3656
ag2453
ag3065
ag2789
ag1011
ag3368
ag3785
ag708
ag2949
ag258
ag3298
ag3289
ag1423
ag2725
ag691
ag2470
ag1656
ag1868
ag3198
ag3366
ag395
ag447
ag3141
ag1066
ag2144
ag1646
ag858
ag3168
ag3135
ag919
ag341
ag704
ag177
ag1846
ag2392
ag4080
ag830
ag3649
ag2097
ag3532
ag3851
ag1297
ag1889
aS'd'
ag4035
ag2628
ag1994
ag2768
ag303
ag2151
ag2651
ag161
ag3655
ag1905
ag4089
ag3981
ag707
ag402
ag43
ag3841
ag663
ag2343
ag3339
ag1442
ag19
ag1209
ag3539
ag2737
ag2239
ag1350
ag198
ag4106
ag677
ag3709
ag536
ag3260
ag1984
ag702
ag1261
ag2633
ag2685
ag475
ag2730
ag3947
ag1155
ag2650
ag38
ag1859
ag3739
ag2440
ag1213
ag1292
ag552
ag2391
ag3604
ag2784
ag2499
ag909
ag1722
ag3312
ag3609
ag942
ag3960
ag1843
ag1950
ag2929
ag3128
ag2765
ag4019
ag3308
ag1184
ag578
ag28
ag4023
ag381
ag3027
ag3356
ag2985
ag1109
ag3504
ag3595
ag2529
ag231
ag1496
ag1409
ag647
ag2157
ag34
ag2051
ag1935
ag2193
ag3866
ag2910
ag2556
ag83
ag2824
ag129
ag2227
ag2720
ag2135
ag286
ag2247
ag338
ag3855
ag2442
ag1111
ag3694
ag2512
ag2146
ag3936
ag3462
ag3943
ag2925
ag1345
ag3797
ag1114
ag207
ag1914
ag1163
ag2857
ag65
ag2467
ag2232
ag1090
aS'4'
ag3461
ag667
ag237
ag2371
ag3806
ag1187
ag100
ag1474
ag591
ag530
ag2234
ag1673
ag2769
ag2612
ag1608
ag3664
ag4066
ag965
ag1988
ag1941
ag2652
ag791
ag179
ag4024
ag3494
ag995
ag3636
ag3441
ag342
ag3531
ag1193
ag398
ag2268
ag1141
ag1960
ag271
ag3341
ag2458
ag435
ag1211
ag1316
ag2201
ag101
ag2031
ag433
ag3177
ag249
ag3145
ag2492
ag2330
ag2967
ag4044
ag1947
ag2390
ag1929
ag2066
ag4018
ag3925
ag1844
ag3935
ag2521
ag3912
ag3725
ag1798
ag2400
ag40
ag1351
ag3643
ag2673
ag4091
ag1279
ag1049
ag1125
ag870
ag170
ag2981
ag2316
ag1104
ag1383
ag2178
ag1084
ag1246
ag95
ag2042
ag3359
ag2134
ag4045
ag1511
ag1308
ag3174
ag2972
ag2914
ag3957
ag3247
ag2276
ag1819
ag4058
ag2215
ag2740
ag1137
ag3055
ag4077
ag890
ag2557
ag3113
aS'T'
ag358
ag3723
ag145
ag968
ag3069
ag1024
ag1204
ag3428
ag1059
ag1071
ag2541
ag4115
ag2723
ag519
ag726
ag359
ag888
ag2156
ag2482
ag3388
ag833
ag1875
ag1975
ag468
ag3667
ag1327
ag1013
ag1938
ag3021
ag3370
ag2897
ag1447
ag715
ag1231
ag3403
ag2426
ag3761
ag432
ag1348
ag3627
ag555
ag3057
ag1099
ag3402
ag2314
ag2788
ag2802
ag1258
aS'R'
ag2922
ag1107
ag3789
ag3320
aS'-'
ag2181
ag2357
ag3937
ag3564
ag2434
ag1405
ag789
ag1202
ag1142
ag371
ag3111
ag2640
ag2973
ag3387
ag3492
ag2425
ag4081
ag3864
ag2022
ag949
ag1800
ag2039
ag2318
ag3081
ag1030
ag2711
ag3282
ag2595
ag1790
ag538
ag399
ag695
ag878
ag1823
ag409
ag1192
ag653
ag1207
ag127
ag1694
ag2924
ag1884
ag2845
ag3682
ag1873
ag4007
ag599
ag2767
ag3417
ag3565
ag3013
ag2507
ag1304
ag340
ag2709
ag2873
ag110
ag1536
ag790
ag1170
ag1082
ag2158
ag188
ag2717
ag856
ag2742
ag1276
ag3963
ag267
ag4026
ag1048
ag1854
ag3926
ag3651
ag857
ag3674
ag2386
ag2429
ag2989
aS'J'
ag4020
ag3294
ag3491
ag3801
ag4049
ag1920
ag1067
ag385
ag2288
ag203
ag2210
ag3164
ag679
ag1766
ag3160
ag657
ag1312
ag1061
ag3784
ag3852
ag835
ag1512
ag2842
ag3097
ag2395
ag3133
ag1052
ag389
ag3915
ag2052
ag4117
ag2309
ag1398
ag2974
ag3142
ag173
ag3923
ag696
ag832
ag1077
ag3117
ag1627
ag1245
ag3129
ag642
ag2545
ag1004
ag2900
ag747
ag1458
ag3405
ag1577
ag326
ag1389
ag3273
ag689
ag1963
ag1073
ag2324
ag3140
ag1897
ag3953
ag1699
ag48
ag88
ag1756
ag68
ag361
ag1551
ag1056
ag4013
ag71
ag2264
ag2044
ag1702
ag1043
ag988
ag1154
ag826
ag1481
ag428
ag1519
aS'e'
ag1971
ag2105
ag2261
ag3452
ag1892
ag3206
ag2863
ag1820
ag2756
ag2340
ag900
ag3166
ag1251
ag2988
ag721
ag4043
ag1782
ag2504
aS'5'
ag1762
ag2337
ag3845
ag3401
ag1559
ag2001
ag3881
ag2263
ag124
ag3184
ag4053
ag163
ag3560
ag3448
ag2300
ag211
ag2565
ag2311
ag1737
ag786
ag1538
ag1967
aS'g'
ag3775
ag819
ag1396
aS'i'
ag2905
ag1407
ag1145
ag3229
ag1324
ag1786
ag1665
ag1242
ag718
ag3106
ag3231
ag3876
ag305
ag1028
ag321
ag1838
ag1112
ag2647
ag3998
ag1502
ag1494
ag1835
ag1113
ag489
ag2259
ag382
ag24
ag2272
ag737
ag724
ag3696
ag3411
ag1151
ag3256
ag2354
ag1403
ag1224
ag3823
ag2430
ag3809
ag1461
ag1717
ag1333
ag3825
ag886
ag3155
ag1078
ag2638
ag2432
ag2410
ag1035
ag1253
ag999
ag1958
ag3805
ag3813
ag3800
ag3890
ag1158
ag1282
ag3109
ag3654
ag4017
ag1977
ag3068
ag1451
ag3070
ag3132
ag355
ag1196
ag3591
ag813
ag2911
ag3431
ag57
ag668
ag3716
ag568
ag1362
ag1542
ag306
ag1264
ag531
ag1871
ag977
ag991
ag766
ag322
ag2959
ag3771
ag1531
ag260
ag3913
ag3710
ag348
ag2657
ag2099
ag845
ag3635
ag569
ag3112
ag1620
ag2694
ag295
ag463
ag952
ag4096
ag3426
ag494
ag2000
ag3156
ag659
ag518
ag943
ag3285
ag1331
ag3653
ag2976
ag801
ag3685
ag269
ag2281
ag3490
ag3110
ag574
ag866
ag1305
ag3986
ag2966
ag565
ag937
ag1244
ag2445
ag3868
ag658
ag416
ag1186
ag4031
ag3372
ag2245
ag2360
ag2669
ag2137
ag1514
ag2572
ag3917
ag3440
ag1361
ag384
ag2206
ag2707
ag1926
ag3321
ag1763
ag285
ag3580
ag2865
ag3457
ag2693
ag2561
ag971
ag3882
ag512
ag1344
ag3990
ag1628
ag1289
ag3408
ag681
ag2928
ag1862
ag219
ag1430
ag3817
ag1581
ag2393
ag1385
ag3313
ag1575
ag2751
ag135
ag1412
ag284
ag3429
ag426
ag3686
ag3365
ag2101
ag4114
ag3996
ag1459
ag3051
ag2420
ag2488
ag550
ag1415
ag2108
ag2843
ag1593
ag2764
ag2394
ag268
ag3547
ag1691
ag617
ag1664
ag1144
ag82
ag1599
ag3546
ag3608
ag3116
ag825
ag1232
ag2270
ag2447
ag49
ag1366
ag2312
ag527
ag3484
ag774
ag2191
ag1449
ag2913
ag3802
ag1901
ag1044
ag225
ag3870
ag643
ag133
ag1832
ag2027
ag1778
ag2443
ag1337
ag3927
ag3658
ag2579
ag3201
ag3187
ag1091
ag2339
ag2341
ag1332
ag2599
ag2841
ag961
ag3908
ag2254
ag336
ag1441
ag2130
ag1399
ag3409
ag2592
ag3009
ag546
ag3222
ag2489
ag2129
ag1757
ag2527
ag1692
ag228
ag1183
ag2359
ag1544
ag1476
ag2203
aS'8'
ag240
ag3799
ag1484
ag347
ag2009
ag740
ag661
ag1256
ag1911
aS't'
ag1119
ag343
ag1607
ag2283
ag3317
ag855
ag618
ag60
ag3688
ag2148
ag1495
ag3824
ag881
ag2766
ag2034
ag767
ag852
ag1724
ag3074
ag590
aS'c'
ag2120
ag3633
ag1271
ag2912
ag2795
ag1796
ag2006
ag576
ag620
ag2152
ag953
ag3680
ag2153
ag635
ag1836
ag2855
ag2273
ag2014
ag3046
ag3972
ag3537
ag3071
ag276
ag1808
ag755
ag412
ag1410
ag885
ag3914
ag3268
ag2997
ag1794
ag4046
ag256
ag2776
ag2549
ag142
ag3163
ag3008
ag1003
ag2771
ag1755
ag1952
ag3332
ag2573
ag3681
ag3017
ag2362
ag75
ag1863
ag1874
ag1574
ag309
ag2046
ag1672
ag1379
ag1714
ag1418
ag1355
ag874
ag35
ag1710
ag314
ag3762
ag2727
ag992
ag456
ag3734
ag2856
ag1473
ag777
ag634
ag1908
ag713
ag2777
ag3026
ag1176
ag324
ag2899
ag1149
ag3430
ag3717
ag1083
ag699
ag3966
ag2760
ag979
ag3791
ag3535
ag33
ag77
ag2437
ag684
ag485
ag670
ag99
ag1837
ag334
ag2024
ag905
ag444
ag625
ag4112
ag1040
ag710
aS'I'
ag1933
ag3263
ag3792
ag1915
ag2021
ag598
ag2490
ag3733
ag1391
ag877
ag1404
ag1269
ag985
ag2909
ag743
ag2132
ag3919
ag557
ag2382
ag1968
ag3756
ag787
aS'6'
ag865
aS'p'
aS'm'
ag3630
ag3248
ag846
ag3741
ag41
ag2634
ag2850
ag393
ag2906
ag464
ag2018
ag2944
ag3060
ag4067
ag1652
ag255
ag3840
ag2794
ag3875
ag2569
ag3412
ag2078
ag1025
ag112
ag3542
ag3508
ag1055
ag253
ag3337
ag318
ag2761
ag3376
ag1696
ag3326
ag1682
ag976
ag1548
ag1457
ag1974
ag3867
ag291
ag80
ag751
ag1708
ag1229
ag883
ag2060
ag1321
ag1569
ag2818
ag2550
ag3597
ag1274
ag1866
ag273
ag3695
ag2772
ag2537
ag3616
ag2724
ag1341
ag2691
ag1612
ag337
ag2319
ag2590
ag2397
ag404
ag22
ag1711
ag3499
ag4062
ag1695
ag902
ag2111
ag3811
ag1780
ag1009
ag87
ag483
ag2418
ag3015
ag3904
ag379
ag245
ag1833
ag2859
ag1443
ag2199
ag2068
ag1788
ag817
ag472
ag1828
ag984
ag52
ag282
ag1894
ag3406
ag2503
ag3586
ag577
ag889
ag3279
ag1365
ag3994
ag3782
ag1076
ag2692
ag3137
ag1106
ag1472
ag2248
ag2735
ag3020
ag242
ag2903
ag1966
ag2748
ag1384
ag2242
ag1320
ag901
ag3835
ag1552
ag2770
ag2315
ag62
ag829
ag1698
ag1266
ag3314
ag3628
ag1180
ag1964
ag2183
ag2296
ag3063
ag1903
ag4052
ag1146
ag3818
ag1831
ag2436
ag1133
ag53
ag3933
ag792
ag248
ag3930
ag1147
ag4071
ag946
ag2677
ag3342
ag1387
ag575
ag3240
ag2617
ag2495
ag3043
ag200
ag476
ag3878
ag3454
ag3459
ag2566
ag935
ag3988
ag672
ag3466
ag1448
ag1801
ag1189
ag1278
ag511
ag1007
ag2659
ag186
ag3126
ag2098
ag3779
ag1339
ag1336
ag3031
ag1705
ag3837
ag205
ag2045
ag3549
ag2619
ag624
ag3865
ag1177
ag1284
ag1679
ag853
ag1247
ag2690
ag803
ag1234
ag3487
ag1532
ag1810
ag394
ag3519
ag2932
ag3007
ag1483
ag1322
ag700
ag3393
ag579
ag120
ag3968
ag1596
ag3322
ag1721
aS'7'
ag2255
ag3000
ag719
ag1585
ag1285
ag1507
ag1644
ag2559
ag2812
ag3884
ag499
ag244
ag3743
ag4015
ag1456
ag3295
ag4074
ag2118
ag3422
ag2454
ag1803
ag2326
ag2170
ag3216
ag540
ag2971
ag457
ag2438
ag2568
ag4047
ag3463
ag2641
ag1826
ag3768
ag1516
ag1171
ag2275
ag3204
ag63
ag2061
ag759
ag2398
ag2323
ag3369
ag1580
ag3302
ag3049
ag278
ag2858
ag2801
ag263
ag2698
ag3518
ag2185
ag2593
ag287
ag3054
ag2127
ag1976
ag275
ag936
ag3969
ag3086
ag2244
ag2214
ag2943
ag1686
ag1068
ag745
ag3689
ag3559
ag3259
ag651
ag701
ag1946
ag1302
ag646
ag880
ag3932
ag562
ag3478
ag842
ag3029
ag764
ag1408
ag609
ag1572
ag2450
ag3283
ag2895
ag3533
ag1074
ag3349
ag524
ag3550
ag2871
ag3540
ag297
ag2874
ag652
ag863
ag187
ag2502
ag895
ag1352
ag508
ag3103
ag2887
ag2836
ag2054
ag3815
ag4072
ag3885
ag2999
ag279
ag2954
ag507
ag706
ag2662
ag847
ag1993
ag1469
ag1678
ag1168
ag2480
ag131
ag329
ag967
ag465
ag3189
ag351
ag3242
ag822
ag3087
ag712
ag773
ag3631
ag2950
ag3810
ag3237
ag3243
ag2229
ag1401
ag2081
ag1122
ag2713
ag1893
ag1850
ag2869
ag2033
ag2597
ag812
ag3003
ag1853
ag1138
ag3389
ag903
ag3292
ag1795
ag687
ag3942
ag698
aS'u'
ag2333
ag138
ag3061
ag3425
ag589
ag3220
ag3854
ag4061
ag3862
ag69
ag1759
ag3498
ag3266
ag1215
ag1626
ag2112
ag85
ag3073
ag360
ag2257
ag2282
ag3831
ag2888
aS'C'
ag1485
ag4006
ag2231
ag2415
ag3287
ag1731
ag603
ag1701
ag367
ag2623
ag2356
ag1201
ag1621
ag2028
ag800
ag2621
ag3502
ag3144
ag570
ag802
ag604
ag1400
aS'f'
ag728
ag1116
ag2603
ag2194
ag1739
ag3973
ag3223
ag3078
ag439
ag798
ag2630
ag3309
ag223
ag2851
ag1022
ag2964
ag3675
ag3450
ag1360
ag467
ag492
ag311
ag3181
ag469
ag90
ag720
ag3146
ag2528
ag3648
ag1675
ag2475
ag183
ag2474
ag3752
ag1991
ag998
ag1842
ag3659
ag1480
ag3251
ag2907
ag3722
ag1283
ag422
ag3435
ag3488
ag1032
ag938
ag780
ag910
ag520
ag3620
ag2298
ag1429
ag354
ag2703
ag916
ag3980
ag1354
ag1789
ag3124
ag2861
ag3347
ag1053
ag1517
ag310
ag3200
ag1395
ag3698
ag1697
ag2867
ag2948
ag3066
ag3600
ag3907
ag251
ag3489
ag3938
ag3460
ag501
ag288
ag982
ag1746
ag1986
ag932
ag2672
ag850
ag1668
ag4055
ag2401
ag2271
ag3929
ag2331
ag595
ag3041
ag3807
ag1565
ag3033
ag3398
ag3562
ag3077
ag2304
ag2819
ag542
ag669
ag2806
ag1036
aS'W'
ag3516
ag3434
ag1010
ag3444
aS'r'
ag3053
ag1342
ag640
ag30
ag3329
ag1238
ag1758
ag665
ag563
ag2237
ag1792
ag2670
ag1179
ag3711
ag46
ag2228
ag1427
ag1895
ag814
ag3886
ag897
ag2175
ag3210
ag2826
ag3165
ag175
ag366
ag2325
ag1736
ag3090
ag838
ag2664
ag2409
ag1014
ag3783
ag809
ag147
ag1262
ag3705
ag3950
ag3472
ag2516
ag3745
ag1482
ag1898
ag2625
ag3382
ag1840
ag1206
ag3439
ag3940
ag4099
ag1228
ag3961
ag397
ag1115
ag1638
ag2358
ag3754
ag2374
ag1860
ag2065
ag1878
ag3846
ag1932
ag3045
ag1774
ag1467
ag3979
ag3102
ag3208
ag3315
ag3482
ag522
ag3047
ag47
ag2041
ag1995
ag202
ag350
ag1791
ag3744
ag403
ag3639
ag1570
ag2184
ag2960
ag586
ag3637
ag2372
ag141
ag3161
aS'3'
ag655
ag1657
ag1928
ag1501
ag3305
ag4083
ag2610
ag3024
ag3245
ag2038
ag1178
ag2704
ag2050
ag42
ag3557
ag1712
ag4111
ag3348
ag3920
ag3769
ag3962
ag2342
ag2705
ag2775
ag2519
ag3724
ag208
ag1540
ag1610
ag3104
ag1589
ag3175
ag933
ag2676
ag1499
ag3646
ag1281
ag3946
ag2844
ag1770
ag1156
ag3470
ag3971
ag1523
ag2718
ag2963
ag59
ag2750
ag2923
ag2562
ag1965
ag498
ag3524
ag3400
ag2898
ag1017
ag3548
ag2139
ag2668
ag1987
ag369
ag206
ag1900
ag3872
ag1784
ag2128
ag2878
ag1313
ag3230
ag1439
ag2190
ag3903
ag3691
ag3093
ag1858
ag2378
ag3610
ag2759
ag1684
ag2147
ag2531
ag3847
ag1372
ag4097
ag2217
ag1089
ag2952
ag2220
aS'N'
ag2714
ag1719
ag2411
ag2655
ag2543
ag987
ag2875
ag3786
ag3763
ag1097
ag3399
ag1751
ag1557
ag1513
ag335
ag2536
ag3394
ag1674
ag2059
ag357
ag2364
ag2016
ag1105
ag102
ag974
ag1566
ag2205
ag3612
ag1098
ag2774
ag3083
ag3848
ag799
ag1127
ag108
ag4070
ag1219
ag478
ag2197
ag1093
ag3497
ag3804
ag2712
ag1326
ag1998
ag1533
ag1121
ag1463
ag692
ag51
ag2828
ag3827
ag1037
ag1470
ag3418
ag1535
ag1386
ag734
ag3121
ag441
ag3544
ag3617
ag4060
ag749
ag2708
ag1488
ag2295
ag1604
ag2835
ag4107
ag2449
ag247
ag4051
ag1562
ag3883
ag2820
ag1169
ag1584
ag2758
ag1060
ag2057
ag2366
ag2918
ag178
ag3611
ag3746
ag1272
ag2665
ag3874
ag2506
ag72
ag1912
ag2110
ag293
ag3955
ag871
ag3006
ag2452
ag420
ag2798
ag2461
ag3993
aS'w'
ag1603
ag2984
ag4103
ag2407
ag2013
ag3975
ag3632
ag1438
ag639
ag2370
ag159
ag619
ag2269
ag3673
ag239
ag2591
ag528
ag2069
ag1444
ag1671
ag2465
ag2893
ag1329
ag1864
ag2250
ag714
ag2998
ag2534
ag1555
ag510
ag2799
ag2284
ag375
ag939
ag3787
ag3989
ag693
ag2583
ag3607
ag2939
aS'o'
ag2624
ag3152
ag1617
ag302
ag2710
ag534
ag2933
ag2313
ag2236
ag3244
ag158
ag848
ag3115
ag401
ag3306
ag4028
ag3195
ag307
ag722
ag1718
ag1197
ag537
ag493
ag2497
ag3693
ag4105
ag1890
ag2328
ag3211
ag189
ag3239
ag3909
ag1624
ag301
ag2332
ag990
ag1633
ag2872
ag1637
ag1498
ag134
ag455
ag2195
ag500
ag1364
ag1081
ag180
ag3207
ag2115
ag2609
ag352
aS'b'
ag172
ag1005
ag664
ag2029
ag3796
ag3541
ag2103
ag2303
ag3199
ag482
ag2075
ag1263
ag1634
ag2620
ag3707
ag3720
ag3107
ag892
ag1805
ag676
ag488
ag107
ag1526
ag3642
ag1249
ag378
ag2762
ag2483
ag3692
ag2508
ag2479
ag3209
ag3958
ag3105
ag2580
ag548
ag996
ag697
ag3887
ag2594
ag2353
ag2773
ag2213
ag1436
ag2500
ag940
ag44
ag3590
ag1930
ag2143
ag115
ag3650
ag387
ag3291
ag1019
ag3217
ag1618
ag3219
ag1394
ag2510
ag593
ag2494
ag1764
ag502
ag1578
ag1753
ag1330
ag2113
ag3264
ag1446
ag4090
ag541
ag2955
ag3159
ag3983
ag3158
ag1338
ag319
ag166
ag3297
ag2808
ag2258
ag3167
ag3945
ag3788
ag1733
ag2131
ag2969
ag1497
ag315
ag1390
ag1669
ag2876
ag272
ag450
ag2622
ag849
ag1381
ag3011
ag2486
ag2726
ag3596
ag1543
ag137
ag975
ag2225
ag2002
ag860
ag212
ag1537
ag1094
ag515
ag3948
ag572
ag957
ag3765
ag3299
ag2322
ag3162
ag425
ag2744
ag1160
ag2631
ag27
ag2862
ag3571
ag926
ag1368
ag230
ag2048
ag1783
ag2956
ag1554
ag532
ag356
aS'2'
ag1648
ag1376
ag3281
ag3774
ag1944
ag2632
ag613
ag4042
ag2117
ag2308
ag1726
ag64
ag2249
ag1029
ag413
ag1260
ag2406
ag3924
ag3143
ag682
ag2846
ag805
ag154
ag3844
ag2813
ag292
ag585
ag637
ag2083
ag2125
ag2919
ag3583
ag3521
ag1973
ag3623
ag1130
ag614
ag2106
ag1191
ag2405
ag1553
ag3485
ag1861
ag2752
ag3985
ag477
ag1216
ag2305
ag1424
ag3192
ag3629
ag1248
ag2126
ag1990
ag2854
ag906
ag770
ag2881
ag2003
ag1205
ag2581
ag1172
ag3634
ag1092
ag1777
ag1317
ag3928
ag3227
ag3193
ag994
ag1681
ag1287
ag1185
ag1942
ag1101
ag3683
ag2460
ag3280
ag4040
ag1293
ag2182
ag2958
ag434
ag746
ag2043
ag70
ag2058
ag1639
ag3414
ag2834
ag2472
ag162
ag3190
ag427
ag2602
ag3427
ag3449
ag3318
ag3570
ag2349
ag1921
ag549
ag2477
ag2601
ag2605
ag386
ag3275
ag2515
ag3154
ag377
ag2994
ag2165
ag2010
ag3830
ag2403
ag2600
ag3731
ag3350
ag2032
ag1487
ag3619
ag2892
ag193
ag1979
ag2738
ag2346
ag2368
ag621
ag1026
ag2299
ag3325
ag2732
ag2666
ag2839
ag3819
ag2116
ag3182
ag2077
ag3922
ag411
ag1166
ag2832
ag930
ag648
ag1740
ag2252
ag3277
ag2743
ag1985
ag2814
ag2654
ag2487
ag3473
ag650
ag596
ag474
ag448
ag2102
ag3191
ag3303
ag1500
ag2389
ag2216
ag3410
ag3307
ag1419
ag2287
ag1034
ag601
ag1027
ag3385
ag1347
ag1435
ag3301
ag1688
ag388
ag1713
ag3794
ag1814
ag3843
ag2847
ag2020
ag1420
ag2674
ag185
ag3475
ag3232
ag1725
ag3064
ag1945
ag1432
ag1406
ag2986
ag1767
ag1848
ag887
ag3130
ag2520
ag3614
ag2554
ag3900
ag1377
ag1643
ag2423
ag3839
ag2246
ag1785
ag544
ag775
ag3363
ag3042
ag3018
ag443
ag2266
ag1597
ag31
ag3582
ag769
ag1001
ag2162
ag495
ag32
ag2209
ag3944
ag2136
ag1173
ag3274
ag490
ag3010
ag368
ag1622
aS"'"
ag1825
ag1649
ag3438
ag3964
ag1667
ag2012
ag1693
ag1847
ag1265
ag3236
ag3252
ag4065
ag1595
ag535
ag3067
ag3670
ag3777
ag3469
ag3030
ag2660
ag1867
ag2782
ag3976
ag2073
ag3480
ag1605
ag3276
ag4025
ag2781
ag3517
ag250
ag66
ag2779
ag1558
ag3877
ag1629
ag1752
ag3566
ag3640
ag2736
ag2424
ag1913
ag828
ag3442
ag2005
ag1359
ag1727
ag3335
ag3022
ag3896
ag56
ag1602
ag1704
ag3697
ag2739
ag3375
ag1615
ag2189
ag164
ag2615
ag4056
ag4002
ag2523
ag1886
ag2715
ag3641
ag3221
ag4120
ag277
ag2701
ag3803
ag3050
ag1288
ag2815
ag298
ag1851
ag1779
ag3880
ag423
ag1924
ag3235
ag893
ag839
ag2942
ag525
ag1199
ag3149
ag390
ag827
ag3551
ag406
ag2995
ag3386
ag1123
ag908
ag616
ag194
ag2179
ag3605
ag3391
ag1492
ag2894
ag547
ag2084
ag3671
ag1000
ag442
ag3987
ag951
ag3558
ag2176
ag2334
ag167
ag818
ag1508
ag3860
ag3327
ag1613
ag2785
ag3443
ag2086
ag1876
ag191
ag3793
ag3701
ag1636
ag1210
ag3392
ag772
ag2671
ag74
ag2160
ag686
ag2396
ag1075
ag3304
ag449
ag3150
ag2890
ag3367
ag1479
ag1414
ag2816
ag1374
ag1598
ag3732
ag2627
ag4116
ag197
ag1021
ag2558
ag215
ag1567
ag3832
ag3767
ag3293
ag3522
ag3138
ag4057
ag1811
ag1549
ag3554
ag2293
ag3530
ag3226
ag1088
ag912
ag1573
ag1102
ag3523
ag3421
ag2831
ag2484
ag3613
ag421
ag3740
ag1534
ag4100
ag955
ag607
ag3415
ag3888
ag2471
ag2663
ag2883
ag3100
ag2498
ag192
ag3324
ag3076
ag3254
ag199
ag2262
ag3997
ag2064
ag3331
ag1200
ag3690
ag898
ag2026
ag2388
ag1723
ag3956
ag216
ag1655
ag630
ag487
ag644
ag3486
ag3343
ag806
ag2649
ag1132
ag2320
ag484
ag2230
ag1676
ag516
ag3373
ag629
ag2094
ag2598
ag3288
ag1237
ag1161
ag1619
ag1815
ag2803
ag1225
ag505
ag2524
ag3048
ag4119
aS'1'
ag993
ag417
ag1031
ag2008
ag257
ag1431
ag1426
ag1453
ag3952
ag1257
ag517
ag1062
ag567
ag969
ag2100
ag339
ag1961
ag429
ag332
ag3056
ag3563
ag2656
ag1760
ag1940
ag1970
ag3360
ag2285
ag3984
ag3432
ag1509
ag1425
ag3702
ag1687
ag3445
ag304
ag400
ag93
ag4038
ag1877
ag1433
ag2174
ag1582
ag3982
ag3773
ag2931
ag3992
ag1962
ag716
ag3728
ag921
ag717
ag2180
ag1212
ag1547
ag1923
ag3080
ag1143
ag1489
ag363
ag1510
ag233
ag3737
ag2286
ag217
ag1530
ag3894
ag3424
ag3336
ag3606
ag2265
ag3525
ag3899
ag419
ag3035
ag2473
ag840
ag2090
ag86
ag214
ag678
ag2253
ag1849
ag1738
ag1879
ag1922
ag671
ag25
ag3751
ag3838
ag1594
ag3481
ag3278
ag481
ag3719
ag3736
ag1645
ag328
ag1906
ag2629
ag2706
ag3873
ag2917
ag554
ag407
ag816
ag1720
ag3871
ag756
ag2680
ag3576
ag3052
ag2329
ag1813
ag1428
ag2721
ag1008
ag779
ag1046
ag123
ag804
ag2896
ag3552
ag2142
ag1452
ag2030
ag2301
ag2675
ag3136
ag970
ag1690
ag761
ag597
ag2749
ag430
ag2991
ag3729
ag3536
ag2838
ag270
ag2496
ag4079
ag2365
ag3543
ag50
ag1653
ag182
ag2485
ag2166
ag580
ag113
ag1378
ag2586
ag649
ag4009
ag1129
ag2280
ag3828
ag466
ag1397
ag459
ag1677
ag864
ag2763
ag2636
ag2608
ag118
ag3058
ag4016
ag3381
ag1957
ag3108
ag195
ag1689
ag1614
ag353
ag3757
ag3567
ag2517
ag1904
ag2402
ag3357
ag1255
ag2682
ag3660
ag3122
ag582
ag73
ag2526
ag727
ag148
ag3183
ag2413
ag1981
ag92
ag2163
ag1936
ag757
ag1058
ag2575
ag1887
ag3684
ag2805
ag2387
ag1462
ag3895
ag1556
ag622
ag2092
ag3507
ag973
ag3575
ag128
ag1983
ag831
ag130
ag1715
ag4118
ag3089
ag553
ag235
ag2198
ag3598
ag2821
ag3995
ag3798
ag232
ag2891
ag300
ag931
ag3114
ag2171
ag1910
ag2626
ag2025
ag785
ag1951
ag3574
ag296
ag1709
ag2961
ag711
ag2011
ag2133
ag84
ag91
ag1096
ag3354
ag954
ag259
ag2908
ag1761
ag2804
ag2585
ag1539
ag1323
ag2811
ag2352
ag523
ag1063
ag1561
ag2202
ag3592
ag2563
ag1223
ag3704
ag380
ag1872
ag2962
ag320
ag3214
ag3795
ag1524
ag709
ag736
ag1954
ag559
ag913
ag3397
ag29
ag3413
ag1103
ag1651
ag1683
ag3215
ag2611
ag4037
ag1773
ag2780
ag236
ag3479
ag1891
ag1804
ag623
ag1660
ag688
ag3834
ag3747
ag2290
ag3857
ag1747
ag1334
ag638
ag2866
ag2169
ag583
ag2658
ag1588
ag224
ag2207
ag3496
ag3727
ag2829
ag1521
ag1417
ag1592
ag2369
ag763
ag3500
ag2361
ag139
ag2279
ag2145
ag3228
ag1047
ag1087
ag2607
ag2377
ag3016
ag1464
ag2327
ag2787
ag1600
ag1659
ag405
ag2427
ag1855
ag543
ag114
ag3028
ag3075
ag3624
ag221
ag1466
ag3272
ag2915
ag2700
ag222
ag227
ag2123
ag2993
ag3364
ag2722
ag1661
ag3916
ag3703
ag1939
ag171
ag1050
ag2416
ag2138
ag963
ag1167
ag2880
ag3735
ag226
ag1070
ag1829
ag2688
ag168
ag3131
ag126
ag2547
ag1716
ag3258
ag2852
ag2990
ag3249
ag1745
ag1896
ag1992
ag2292
ag4110
ag3638
ag122
ag3833
ag3742
ag3776
ag3520
ag3755
ag2793
ag2096
ag2072
ag261
ag3446
ag1230
ag1220
ag4039
ag3495
ag3311
ag254
ag3471
ag581
ag561
ag3464
ag2868
ag962
ag431
ag862
ag2614
ag703
ag539
ag2091
ag3178
ag2367
ag374
ag2468
ag1909
ag1015
ag2379
ag2540
ag2853
ag3715
ag3626
ag2241
ag3652
ag753
ag3101
ag3072
ag2080
ag1217
ag1491
ag867
ag3185
ag573
ag1772
ag929
ag3213
ag2978
ag2606
ag2870
ag111
ag2481
ag165
ag3758
ag2953
ag3850
ag2947
ag1522
ag914
ag1765
ag2056
ag3672
ag781
ag1203
ag723
ag917
ag3098
ag396
ag2589
ag4004
ag3180
ag587
ag2431
ag2567
ag1162
ag2582
ag3436
ag2302
ag1735
ag4010
ag1882
ag922
ag2464
ag1175
ag3269
ag1700
ag1564
ag1402
ag1243
ag2439
ag2289
ag2810
ag2697
ag2678
ag2095
ag611
ag313
ag246
ag3622
ag4064
ag1445
ag564
ag1787
ag1136
ag2522
ag972
ag252
ag3677
ag2218
ag3506
ag3023
ag1583
ag3169
ag1776
ag3647
ag1300
ag948
ag3977
ag3503
ag3390
ag1006
ag209
ag3123
ag1706
ag3250
ag2747
ag2173
ag2927
ag1802
ag3706
ag3257
ag2380
ag882
ag1852
ag4094
ag1883
ag2757
ag2983
ag3119
ag934
ag362
ag1812
ag2535
ag612
ag1520
ag4001
ag2375
ag3594
ag3085
ag2783
ag3780
ag2679
ag1298
ag685
ag241
ag3120
ag238
ag3573
ag3338
ag1065
ag1793
ag1437
ag1856
ag1999
ag2921
ag3197
ag3186
ag506
ag3034
ag2552
ag3814
ag925
ag2251
ag1468
ag2433
ag1422
ag2074
ag79
ag989
ag2823
ag2733
ag2238
ag1949
ag2167
ag1367
ag1658
ag768
ag497
ag2778
ag907
ag1471
ag2294
ag1707
ag4032
ag160
ag1218
ag2172
ag98
ag2035
ag1916
ag4030
ag2278
ag986
ag2695
ag2884
ag1943
ag1541
ag2177
ag418
ag1839
ag3004
ag264
ag3380
ag3893
ag1072
ag2840
ag3001
ag1164
ag104
ag1824
ag365
ag1131
ag1124
ag1182
ag4022
ag3749
ag602
ag896
ag924
ag738
ag3965
ag2422
ag3603
ag2696
ag2513
ag784
ag3812
ag1174
ag1504
ag1188
ag820
ag415
ag1148
ag2807
ag3568
ag1587
ag3433
ag683
ag445
ag312
ag627
ag656
ag437
ag2937
ag1054
ag1041
ag3451
ag3678
ag3528
ag2335
ag3125
ag94
ag4000
ag1662
ag3679
ag190
ag3039
ag2141
ag560
ag2532
ag3404
ag2686
ag81
ag3134
ag1016
ag1885
ag1666
ag3949
ag2753
ag3959
ag1953
ag2965
ag89
ag3038
ag2381
ag2514
ag3474
ag3465
ag1816
ag3585
ag2089
ag854
ag1259
ag875
ag610
ag690
ag2408
ag571
ag3088
ag3346
ag4078
ag529
ag103
ag58
ag1434
ag1806
ag1616
ag2053
ag3764
ag181
ag1117
ag229
ag3396
ag729
ag3032
ag1290
ag2351
ag3931
ag3194
ag868
ag149
ag140
ag1821
ag23
ag4092
ag1980
ag1742
ag4029
ag3493
ag3718
ag2070
ag3515
ag496
ag1110
ag1654
ag815
ag3205
ag2533
ag3665
ag486
ag3898
ag136
ag3358
ag2149
ag106
ag675
ag3759
ag2267
ag1411
ag201
ag4063
ag824
ag2493
ag1280
ag2376
ag3726
ag2642
ag654
ag944
ag316
ag479
ag632
ag2729
ag628
ag1135
ag2491
ag4075
ag1799
ag605
ag2204
ag1743
ag3091
ag349
ag3760
ag1505
ag3581
ag1948
ag1380
ag2243
ag2809
ag2224
ag2992
ag4102
ag20
ag2219
ag2916
ag1560
ag2063
ag3553
ag3212
ag1328
ag3584
ag1571
ag636
ag1181
ag3556
ag3708
ag1221
ag3224
ag3383
ag3967
ag3999
ag55
ag1568
ag243
ag1982
ag3384
ag1579
ag2221
ag1728
ag1927
ag3374
ag3483
ag2822
ag4008
ag3577
ag1797
ag3513
ag1254
ag3253
ag3323
ag662
ag2987
ag4050
ag645
ag3826
ag3750
ag980
ag741
ag3082
ag2501
ag3092
ag1611
ag3233
ag3970
ag2544
ag2648
ag3151
ag36
ag392
ag1318
ag1275
ag2525
ag513
ag1301
ag782
ag1781
ag97
ag694
ag3599
ag2062
ag2456
ag4108
ag3512
ag1309
ag3856
ag3911
ag1240
ag1870
ag2476
ag1809
ag2291
ag2310
ag1642
ag2469
ag3766
ag2188
ag4121
ag454
ag2975
ag3351
ag327
ag3044
ag3509
ag3234
ag2119
ag4088
ag3477
ag169
ag117
ag54
ag1371
ag265
ag3262
ag3316
ag3456
ag2970
ag1286
ag1768
ag281
ag1907
ag551
ag2466
ag143
ag3378
ag3853
ag3668
ag1972
ag2444
ag2980
ag1591
ag2088
ag2347
ag1069
ag3721
ag1486
ag1277
ag928
ag811
ag794
ag1830
ag3395
ag3593
ag1190
ag1307
ag1625
ag1268
ag1086
ag733
ag3328
ag3476
ag3019
ag3300
ag3615
ag2588
ag556
ag3991
ag157
ag3153
ag2644
ag3618
ag3437
ag461
ag1252
ag793
ag797
ag4021
ag78
ag1631
ag1392
ag742
ag3569
ag514
ag1919
ag3267
ag2734
ag1236
ag872
ag2667
ag3730
ag2791
ag462
ag884
ag3829
ag1080
ag2571
ag1641
ag1827
ag947
ag3939
ag453
ag325
ag2085
ag1042
ag3669
ag3310
ag3510
ag1079
ag2462
ag1421
ag1157
ag3355
ag2904
ag3345
ag2518
ag1159
ag3416
ag1978
ag2109
ag1748
ag1413
ag2079
ag105
ag3572
ag2946
ag3455
ag155
ag1126
ag904
ag1546
ag331
ag26
ag2004
ag1064
ag3578
ag156
ag1632
ag1057
ag1888
ag606
ag144
ag3772
ag4069
ag1152
ag3644
ag1685
ag899
ag2007
ag3002
ag1959
ag1955
ag1375
ag2661
ag3423
ag1239
ag364
ag2538
ag3700
ag458
ag2889
ag2040
ag2613
ag1033
ag3040
ag3748
ag4041
ag915
ag2124
ag3344
ag2646
ag3514
ag3118
ag1996
ag2560
ag1153
ag289
ag1373
ag2448
ag1356
ag1465
ag2274
ag2414
ag1917
ag1818
ag2616
ag2055
ag204
ag2306
ag323
ag2837
ag274
ag1997
ag1214
ag4054
ag3261
ag509
ag752
ag1198
ag4109
ag3333
ag1222
ag4098
ag4027
ag545
ag2223
ag3188
ag3713
ag3588
ag3458
ag1640
ag37
ag2446
ag2455
ag438
ag1306
ag308
ag424
ag2530
ag2800
ag2977
ag2336
ag2509
ag2935
ag2451
ag1335
ag2576
ag1018
ag3420
ag3352
ag1363
ag2154
ag446
ag1518
ag290
ag2684
ag1310
ag3661
ag1754
ag2161
ag1303
ag3770
ag3954
ag2653
ag471
ag2441
ag3587
ag21
ag2186
ag2938
ag1416
ag1235
ag3371
ag1576
ag2155
ag526
ag1807
ag981
ag2187
ag945
ag2067
ag1340
ag4122
ag1226
ag1002
ag2211
ag2790
ag1630
ag2920
ag1729
ag851
ag196
ag330
ag2754
ag3173
ag1051
ag45
ag1299
ag2741
ag1881
ag299
ag3621
ag1734
ag3036
ag1744
ag213
ag2023
ag2901
ag3062
ag1267
ag3666
ag2996
ag3084
ag4034
ag2428
ag184
ag2830
ag521
ag2321
ag4048
ag2577
ag61
ag3340
ag2639
ag3951
ag3849
ag1195
ag2574
ag911
ag1563
ag3334
ag4093
ag3330
ag3934
ag283
ag608
ag2478
ag4104
ag2825
ag3379
ag1349
ag3921
ag760
ag2885
ag3096
ag2618
ag3859
ag2604
ag1311
ag1194
ag3687
ag1314
ag2886
ag3589
ag1450
ag2699
ag1956
ag452
ag1749
ag473
ag3270
ag592
ag3738
ag964
ag1346
ag2348
ag754
ag176
ag823
ag3601
ag783
ag1296
ag3858
ag1732
ag4011
ag3079
ag837
ag891
ag2827
ag3225
ag4076
ag2082
ag3778
ag2256
ag2786
ag1273
ag2164
ag2936
ag533
ag821
ag2864
ag3362
ag4101
ag1134
ag1609
ag1370
ag3453
ag843
ag3361
ag3218
ag3836
aS'h'
ag2860
ag1227
ag2570
ag3816
ag3094
ag920
ag3879
ag491
ag4084
ag2982
ag841
ag3290
ag345
ag2196
ag2385
ag3974
ag3781
ag566
ag383
ag3910
ag3147
ag344
ag1529
ag1650
ag1139
ag4059
ag2746
ag3255
ag584
ag1771
ag732
ag2542
ag1775
ag2930
ag3099
ag2235
ag2140
ag2902
ag2716
ag2877
ag370
ag3892
ag2689
ag2404
ag2745
ag2505
ag3941
ag2596
ag2150
ag1325
ag2049
ag1750
ag735
ag3863
ag1343
ag3468
ag966
ag1845
ag3172
ag1635
ag3157
ag3037
ag788
ag2122
ag594
ag152
ag1869
ag2926
ag1857
ag3645
ag869
ag1601
ag1670
ag3822
ag1899
ag2463
ag372
ag3014
ag3284
ag1085
ag3889
ag1128
ag210
ag3561
ag3139
ag1880
ag3676
ag2882
ag2277
ag959
ag588
ag3171
ag109
ag460
ag2384
ag151
ag2383
ag3902
ag1769
ag796
ag633
ag2548
ag1388
ag2584
ag3095
asbsS'max_document_length'
p4127
I100
sS'_tokenizer'
p4128
ctensorflow.contrib.learn.python.learn.preprocessing.text
tokenizer
p4129
sS'min_frequency'
p4130
I0
sb.